ASxxxx Assembler V01.75  (GameBoy Z80-like CPU), page 1.



                              1 	;; File generated by GBDK 2.0, P. Felber, 1995-1998
                              2 
                              3 
                              4 	;; Ordering of segments for the linker
                              5 	.area	_CODE
                              6 	.area	_DATA
                              7 	.area	_LIT
                              8 	.area	_BSS
                              9 
                             10 	.area	_DATA
                             11 	.globl	_frequencies
   0000                      12 _frequencies:
   0000 2C 00                13 	.dw	0x2c
   0002 9C 00                14 	.dw	0x9c
   0004 06 01                15 	.dw	0x106
   0006 6B 01                16 	.dw	0x16b
   0008 C9 01                17 	.dw	0x1c9
   000A 23 02                18 	.dw	0x223
   000C 77 02                19 	.dw	0x277
   000E C6 02                20 	.dw	0x2c6
   0010 12 03                21 	.dw	0x312
   0012 56 03                22 	.dw	0x356
   0014 9B 03                23 	.dw	0x39b
   0016 DA 03                24 	.dw	0x3da
   0018 16 04                25 	.dw	0x416
   001A 4E 04                26 	.dw	0x44e
   001C 83 04                27 	.dw	0x483
   001E B5 04                28 	.dw	0x4b5
   0020 E5 04                29 	.dw	0x4e5
   0022 11 05                30 	.dw	0x511
   0024 3B 05                31 	.dw	0x53b
   0026 63 05                32 	.dw	0x563
   0028 89 05                33 	.dw	0x589
   002A AC 05                34 	.dw	0x5ac
   002C CE 05                35 	.dw	0x5ce
   002E ED 05                36 	.dw	0x5ed
   0030 0A 06                37 	.dw	0x60a
   0032 27 06                38 	.dw	0x627
   0034 42 06                39 	.dw	0x642
   0036 5B 06                40 	.dw	0x65b
   0038 72 06                41 	.dw	0x672
   003A 89 06                42 	.dw	0x689
   003C 9E 06                43 	.dw	0x69e
   003E B2 06                44 	.dw	0x6b2
   0040 C4 06                45 	.dw	0x6c4
   0042 D6 06                46 	.dw	0x6d6
   0044 E7 06                47 	.dw	0x6e7
   0046 F7 06                48 	.dw	0x6f7
   0048 06 07                49 	.dw	0x706
   004A 14 07                50 	.dw	0x714
   004C 21 07                51 	.dw	0x721
   004E 2D 07                52 	.dw	0x72d
   0050 39 07                53 	.dw	0x739
   0052 44 07                54 	.dw	0x744
   0054 4F 07                55 	.dw	0x74f
   0056 59 07                56 	.dw	0x759
ASxxxx Assembler V01.75  (GameBoy Z80-like CPU), page 2.



   0058 62 07                57 	.dw	0x762
   005A 6B 07                58 	.dw	0x76b
   005C 73 07                59 	.dw	0x773
   005E 7B 07                60 	.dw	0x77b
   0060 83 07                61 	.dw	0x783
   0062 8A 07                62 	.dw	0x78a
   0064 90 07                63 	.dw	0x790
   0066 97 07                64 	.dw	0x797
   0068 9D 07                65 	.dw	0x79d
   006A A2 07                66 	.dw	0x7a2
   006C A7 07                67 	.dw	0x7a7
   006E AC 07                68 	.dw	0x7ac
   0070 B1 07                69 	.dw	0x7b1
   0072 B6 07                70 	.dw	0x7b6
   0074 BA 07                71 	.dw	0x7ba
   0076 BE 07                72 	.dw	0x7be
   0078 C1 07                73 	.dw	0x7c1
   007A C4 07                74 	.dw	0x7c4
   007C C8 07                75 	.dw	0x7c8
   007E CB 07                76 	.dw	0x7cb
   0080 CE 07                77 	.dw	0x7ce
   0082 D1 07                78 	.dw	0x7d1
   0084 D4 07                79 	.dw	0x7d4
   0086 D6 07                80 	.dw	0x7d6
   0088 D9 07                81 	.dw	0x7d9
   008A DB 07                82 	.dw	0x7db
   008C DD 07                83 	.dw	0x7dd
   008E DF 07                84 	.dw	0x7df
                             85 	.globl	_music
   0090                      86 _music:
   0090 24                   87 	.db	36
   0091 24                   88 	.db	36
   0092 2B                   89 	.db	43
   0093 2B                   90 	.db	43
   0094 2D                   91 	.db	45
   0095 2D                   92 	.db	45
   0096 2B                   93 	.db	43
   0097 48                   94 	.db	72
   0098 29                   95 	.db	41
   0099 29                   96 	.db	41
   009A 28                   97 	.db	40
   009B 28                   98 	.db	40
   009C 26                   99 	.db	38
   009D 26                  100 	.db	38
   009E 24                  101 	.db	36
   009F 48                  102 	.db	72
   00A0 2B                  103 	.db	43
   00A1 2B                  104 	.db	43
   00A2 29                  105 	.db	41
   00A3 29                  106 	.db	41
   00A4 28                  107 	.db	40
   00A5 28                  108 	.db	40
   00A6 26                  109 	.db	38
   00A7 26                  110 	.db	38
   00A8 2B                  111 	.db	43
   00A9 2B                  112 	.db	43
ASxxxx Assembler V01.75  (GameBoy Z80-like CPU), page 3.



   00AA 29                  113 	.db	41
   00AB 29                  114 	.db	41
   00AC 28                  115 	.db	40
   00AD 28                  116 	.db	40
   00AE 26                  117 	.db	38
   00AF 26                  118 	.db	38
   00B0 24                  119 	.db	36
   00B1 24                  120 	.db	36
   00B2 2B                  121 	.db	43
   00B3 2B                  122 	.db	43
   00B4 2D                  123 	.db	45
   00B5 2D                  124 	.db	45
   00B6 2B                  125 	.db	43
   00B7 48                  126 	.db	72
   00B8 29                  127 	.db	41
   00B9 29                  128 	.db	41
   00BA 28                  129 	.db	40
   00BB 28                  130 	.db	40
   00BC 26                  131 	.db	38
   00BD 26                  132 	.db	38
   00BE 24                  133 	.db	36
   00BF 48                  134 	.db	72
   00C0 49                  135 	.db	73
                            136 	.globl	_params_0
   00C1                     137 _params_0:
   00C1 2D 02               138 	.dw	.L2
   00C3 00 00               139 	.dw	0x0
   00C5 22 02               140 	.dw	.L3
   00C7 01 00               141 	.dw	0x1
   00C9 19 02               142 	.dw	.L4
   00CB 01 00               143 	.dw	0x1
   00CD 10 02               144 	.dw	.L5
   00CF 01 00               145 	.dw	0x1
   00D1 05 02               146 	.dw	.L6
   00D3 07 00               147 	.dw	0x7
   00D5 FA 01               148 	.dw	.L7
   00D7 07 00               149 	.dw	0x7
   00D9 00 00               150 	.dw	0x0
   00DB 00 00               151 	.dw	0x0
                            152 	.globl	_params_1
   00DD                     153 _params_1:
   00DD EC 01               154 	.dw	.L8
   00DF 00 00               155 	.dw	0x0
   00E1 E3 01               156 	.dw	.L9
   00E3 07 00               157 	.dw	0x7
   00E5 DA 01               158 	.dw	.L10
   00E7 01 00               159 	.dw	0x1
   00E9 CF 01               160 	.dw	.L11
   00EB 07 00               161 	.dw	0x7
   00ED C6 01               162 	.dw	.L12
   00EF 03 00               163 	.dw	0x3
   00F1 BC 01               164 	.dw	.L13
   00F3 3F 00               165 	.dw	0x3f
   00F5 B3 01               166 	.dw	.L14
   00F7 0F 00               167 	.dw	0xf
   00F9 AA 01               168 	.dw	.L15
ASxxxx Assembler V01.75  (GameBoy Z80-like CPU), page 4.



   00FB 01 00               169 	.dw	0x1
   00FD 9F 01               170 	.dw	.L16
   00FF 07 00               171 	.dw	0x7
   0101 95 01               172 	.dw	.L17
   0103 FF 07               173 	.dw	0x7ff
   0105 8C 01               174 	.dw	.L18
   0107 01 00               175 	.dw	0x1
   0109 81 01               176 	.dw	.L19
   010B 01 00               177 	.dw	0x1
   010D 76 01               178 	.dw	.L20
   010F 01 00               179 	.dw	0x1
   0111 6F 01               180 	.dw	.L21
   0113 01 00               181 	.dw	0x1
   0115 00 00               182 	.dw	0x0
   0117 00 00               183 	.dw	0x0
                            184 	.globl	_params_2
   0119                     185 _params_2:
   0119 61 01               186 	.dw	.L22
   011B 00 00               187 	.dw	0x0
   011D C6 01               188 	.dw	.L12
   011F 03 00               189 	.dw	0x3
   0121 BC 01               190 	.dw	.L13
   0123 3F 00               191 	.dw	0x3f
   0125 B3 01               192 	.dw	.L14
   0127 0F 00               193 	.dw	0xf
   0129 AA 01               194 	.dw	.L15
   012B 01 00               195 	.dw	0x1
   012D 55 01               196 	.dw	.L23
   012F 07 00               197 	.dw	0x7
   0131 95 01               198 	.dw	.L17
   0133 FF 07               199 	.dw	0x7ff
   0135 8C 01               200 	.dw	.L18
   0137 01 00               201 	.dw	0x1
   0139 81 01               202 	.dw	.L19
   013B 01 00               203 	.dw	0x1
   013D 76 01               204 	.dw	.L20
   013F 01 00               205 	.dw	0x1
   0141 6F 01               206 	.dw	.L21
   0143 01 00               207 	.dw	0x1
   0145 00 00               208 	.dw	0x0
   0147 00 00               209 	.dw	0x0
                            210 	.globl	_params_3
   0149                     211 _params_3:
   0149 47 01               212 	.dw	.L24
   014B 00 00               213 	.dw	0x0
   014D 3A 01               214 	.dw	.L25
   014F 01 00               215 	.dw	0x1
   0151 BC 01               216 	.dw	.L13
   0153 FF 00               217 	.dw	0xff
   0155 2C 01               218 	.dw	.L26
   0157 03 00               219 	.dw	0x3
   0159 95 01               220 	.dw	.L17
   015B FF 07               221 	.dw	0x7ff
   015D 8C 01               222 	.dw	.L18
   015F 01 00               223 	.dw	0x1
   0161 81 01               224 	.dw	.L19
ASxxxx Assembler V01.75  (GameBoy Z80-like CPU), page 5.



   0163 01 00               225 	.dw	0x1
   0165 76 01               226 	.dw	.L20
   0167 01 00               227 	.dw	0x1
   0169 6F 01               228 	.dw	.L21
   016B 01 00               229 	.dw	0x1
   016D 00 00               230 	.dw	0x0
   016F 00 00               231 	.dw	0x0
                            232 	.globl	_params_4
   0171                     233 _params_4:
   0171 1E 01               234 	.dw	.L27
   0173 00 00               235 	.dw	0x0
   0175 BC 01               236 	.dw	.L13
   0177 3F 00               237 	.dw	0x3f
   0179 B3 01               238 	.dw	.L14
   017B 0F 00               239 	.dw	0xf
   017D AA 01               240 	.dw	.L15
   017F 01 00               241 	.dw	0x1
   0181 55 01               242 	.dw	.L23
   0183 07 00               243 	.dw	0x7
   0185 10 01               244 	.dw	.L28
   0187 0F 00               245 	.dw	0xf
   0189 02 01               246 	.dw	.L29
   018B 01 00               247 	.dw	0x1
   018D F5 00               248 	.dw	.L30
   018F 07 00               249 	.dw	0x7
   0191 8C 01               250 	.dw	.L18
   0193 01 00               251 	.dw	0x1
   0195 81 01               252 	.dw	.L19
   0197 01 00               253 	.dw	0x1
   0199 76 01               254 	.dw	.L20
   019B 01 00               255 	.dw	0x1
   019D 6F 01               256 	.dw	.L21
   019F 01 00               257 	.dw	0x1
   01A1 00 00               258 	.dw	0x0
   01A3 00 00               259 	.dw	0x0
                            260 	.globl	_params_array
   01A5                     261 _params_array:
   01A5 C1 00               262 	.dw	_params_0
   01A7 DD 00               263 	.dw	_params_1
   01A9 19 01               264 	.dw	_params_2
   01AB 49 01               265 	.dw	_params_3
   01AD 71 01               266 	.dw	_params_4
                            267 	.globl	_current_value
                            268 	;; _DATA ends
                            269 	.area	_CODE
   0000                     270 _start_current_value:
   0000                     271 _current_value:
                            272 ;{
                            273 ;  if(mode == 0) {
                            274 ;    switch(line)
   0000 C5                  275 	PUSH	BC
   0001 F8 04               276 	LDA	HL,4(SP)
   0003 3E 00               277 	LD	A,#<0
   0005 BE                  278 	CP	(HL)
   0006 C2 CF 00            279 	JP	NZ,.L37
   0009 F8 05               280 	LDA	HL,5(SP)
ASxxxx Assembler V01.75  (GameBoy Z80-like CPU), page 6.



   000B 5E                  281 	LD	E,(HL)
   000C 7B                  282 	LD	A,E
   000D C6 80               283 	ADD	#0x80
   000F FE 84               284 	CP	#<132
   0011 28 03               285 	JR	Z,.L113
   0013 D2 A0 06            286 	JP	NC,.L38
   0016                     287 .L113:
   0016 7B                  288 	LD	A,E
   0017 07                  289 	RLCA
   0018 9F                  290 	SBC	A
   0019 57                  291 	LD	D,A
   001A CB 23               292 	SLA	E
   001C CB 12               293 	RL	D
   001E 21 00 00            294 	LD	HL,#.L46
   0021 19                  295 	ADD	HL,DE
   0022 54                  296 	LD	D,H
   0023 5D                  297 	LD	E,L
   0024 2A                  298 	LD	A,(HL+)
   0025 66                  299 	LD	H,(HL)
   0026 6F                  300 	LD	L,A
   0027 E9                  301 	JP	(HL)
                            302 	;; _CODE ends
                            303 	.area	_LIT
   0000                     304 .L46:
   0000 28 00               305 	.dw	.L41
   0002 4F 00               306 	.dw	.L42
   0004 6E 00               307 	.dw	.L43
   0006 95 00               308 	.dw	.L44
   0008 AE 00               309 	.dw	.L45
                            310 	;; _LIT ends
                            311 	.area	_CODE
                            312 ;      {
   0028                     313 .L41:
                            314 ;	return soundReg->control.global_On_Off;
   0028 FA 01 00            315 	LD	A,(_soundReg+1)
   002B 57                  316 	LD	D,A
   002C FA 00 00            317 	LD	A,(_soundReg)
   002F 5F                  318 	LD	E,A
   0030 21 16 00            319 	LD	HL,#22
   0033 19                  320 	ADD	HL,DE
   0034 54                  321 	LD	D,H
   0035 5D                  322 	LD	E,L
   0036 1A                  323 	LD	A,(DE)
   0037 5F                  324 	LD	E,A
   0038 CB 3B               325 	SRL	E
   003A CB 3B               326 	SRL	E
   003C CB 3B               327 	SRL	E
   003E CB 3B               328 	SRL	E
   0040 CB 3B               329 	SRL	E
   0042 CB 3B               330 	SRL	E
   0044 CB 3B               331 	SRL	E
   0046 3E 01               332 	LD	A,#<1
   0048 A3                  333 	AND	E
   0049 5F                  334 	LD	E,A
   004A 16 00               335 	LD	D,#0
   004C C3 A8 06            336 	JP	.L36
ASxxxx Assembler V01.75  (GameBoy Z80-like CPU), page 7.



   004F                     337 .L42:
                            338 ;	return soundReg->control.Vin_SO1;
   004F FA 01 00            339 	LD	A,(_soundReg+1)
   0052 57                  340 	LD	D,A
   0053 FA 00 00            341 	LD	A,(_soundReg)
   0056 5F                  342 	LD	E,A
   0057 21 14 00            343 	LD	HL,#20
   005A 19                  344 	ADD	HL,DE
   005B 54                  345 	LD	D,H
   005C 5D                  346 	LD	E,L
   005D 1A                  347 	LD	A,(DE)
   005E 5F                  348 	LD	E,A
   005F CB 3B               349 	SRL	E
   0061 CB 3B               350 	SRL	E
   0063 CB 3B               351 	SRL	E
   0065 3E 01               352 	LD	A,#<1
   0067 A3                  353 	AND	E
   0068 5F                  354 	LD	E,A
   0069 16 00               355 	LD	D,#0
   006B C3 A8 06            356 	JP	.L36
   006E                     357 .L43:
                            358 ;	return soundReg->control.Vin_SO2;
   006E FA 01 00            359 	LD	A,(_soundReg+1)
   0071 57                  360 	LD	D,A
   0072 FA 00 00            361 	LD	A,(_soundReg)
   0075 5F                  362 	LD	E,A
   0076 21 14 00            363 	LD	HL,#20
   0079 19                  364 	ADD	HL,DE
   007A 54                  365 	LD	D,H
   007B 5D                  366 	LD	E,L
   007C 1A                  367 	LD	A,(DE)
   007D 5F                  368 	LD	E,A
   007E CB 3B               369 	SRL	E
   0080 CB 3B               370 	SRL	E
   0082 CB 3B               371 	SRL	E
   0084 CB 3B               372 	SRL	E
   0086 CB 3B               373 	SRL	E
   0088 CB 3B               374 	SRL	E
   008A CB 3B               375 	SRL	E
   008C 3E 01               376 	LD	A,#<1
   008E A3                  377 	AND	E
   008F 5F                  378 	LD	E,A
   0090 16 00               379 	LD	D,#0
   0092 C3 A8 06            380 	JP	.L36
   0095                     381 .L44:
                            382 ;	return soundReg->control.SO1_OutputLevel;
   0095 FA 01 00            383 	LD	A,(_soundReg+1)
   0098 57                  384 	LD	D,A
   0099 FA 00 00            385 	LD	A,(_soundReg)
   009C 5F                  386 	LD	E,A
   009D 21 14 00            387 	LD	HL,#20
   00A0 19                  388 	ADD	HL,DE
   00A1 54                  389 	LD	D,H
   00A2 5D                  390 	LD	E,L
   00A3 1A                  391 	LD	A,(DE)
   00A4 5F                  392 	LD	E,A
ASxxxx Assembler V01.75  (GameBoy Z80-like CPU), page 8.



   00A5 3E 07               393 	LD	A,#<7
   00A7 A3                  394 	AND	E
   00A8 5F                  395 	LD	E,A
   00A9 16 00               396 	LD	D,#0
   00AB C3 A8 06            397 	JP	.L36
   00AE                     398 .L45:
                            399 ;	return soundReg->control.SO2_OutputLevel;
                            400 ;  } else if(mode == 1) {
   00AE FA 01 00            401 	LD	A,(_soundReg+1)
   00B1 57                  402 	LD	D,A
   00B2 FA 00 00            403 	LD	A,(_soundReg)
   00B5 5F                  404 	LD	E,A
   00B6 21 14 00            405 	LD	HL,#20
   00B9 19                  406 	ADD	HL,DE
   00BA 54                  407 	LD	D,H
   00BB 5D                  408 	LD	E,L
   00BC 1A                  409 	LD	A,(DE)
   00BD 5F                  410 	LD	E,A
   00BE CB 3B               411 	SRL	E
   00C0 CB 3B               412 	SRL	E
   00C2 CB 3B               413 	SRL	E
   00C4 CB 3B               414 	SRL	E
   00C6 3E 07               415 	LD	A,#<7
   00C8 A3                  416 	AND	E
   00C9 5F                  417 	LD	E,A
   00CA 16 00               418 	LD	D,#0
   00CC C3 A8 06            419 	JP	.L36
   00CF                     420 .L37:
                            421 ;    switch(line)
   00CF F8 04               422 	LDA	HL,4(SP)
   00D1 3E 01               423 	LD	A,#<1
   00D3 BE                  424 	CP	(HL)
   00D4 C2 6C 02            425 	JP	NZ,.L47
   00D7 F8 05               426 	LDA	HL,5(SP)
   00D9 5E                  427 	LD	E,(HL)
   00DA 7B                  428 	LD	A,E
   00DB C6 80               429 	ADD	#0x80
   00DD FE 8C               430 	CP	#<140
   00DF 28 03               431 	JR	Z,.L114
   00E1 D2 F6 00            432 	JP	NC,.L64
   00E4                     433 .L114:
   00E4 7B                  434 	LD	A,E
   00E5 07                  435 	RLCA
   00E6 9F                  436 	SBC	A
   00E7 57                  437 	LD	D,A
   00E8 CB 23               438 	SLA	E
   00EA CB 12               439 	RL	D
   00EC 21 0A 00            440 	LD	HL,#.L65
   00EF 19                  441 	ADD	HL,DE
   00F0 54                  442 	LD	D,H
   00F1 5D                  443 	LD	E,L
   00F2 2A                  444 	LD	A,(HL+)
   00F3 66                  445 	LD	H,(HL)
   00F4 6F                  446 	LD	L,A
   00F5 E9                  447 	JP	(HL)
                            448 	;; _CODE ends
ASxxxx Assembler V01.75  (GameBoy Z80-like CPU), page 9.



                            449 	.area	_LIT
   000A                     450 .L65:
   000A 02 01               451 	.dw	.L51
   000C 1D 01               452 	.dw	.L52
   000E 36 01               453 	.dw	.L53
   0010 49 01               454 	.dw	.L54
   0012 69 01               455 	.dw	.L55
   0014 7D 01               456 	.dw	.L56
   0016 9A 01               457 	.dw	.L57
   0018 B5 01               458 	.dw	.L58
   001A CA 01               459 	.dw	.L59
   001C F4 01               460 	.dw	.L60
   001E 19 02               461 	.dw	.L61
   0020 32 02               462 	.dw	.L62
   0022 53 02               463 	.dw	.L63
                            464 	;; _LIT ends
                            465 	.area	_CODE
   00F6                     466 .L64:
                            467 ;      {
   00F6 F8 05               468 	LDA	HL,5(SP)
   00F8 5E                  469 	LD	E,(HL)
   00F9 7B                  470 	LD	A,E
   00FA FE 21               471 	CP	#<33
   00FC CA CA 01            472 	JP	Z,.L59
   00FF C3 A0 06            473 	JP	.L48
   0102                     474 .L51:
                            475 ;	return soundReg->mode1.sweepTime;
   0102 FA 01 00            476 	LD	A,(_soundReg+1)
   0105 57                  477 	LD	D,A
   0106 FA 00 00            478 	LD	A,(_soundReg)
   0109 5F                  479 	LD	E,A
   010A 1A                  480 	LD	A,(DE)
   010B 5F                  481 	LD	E,A
   010C CB 3B               482 	SRL	E
   010E CB 3B               483 	SRL	E
   0110 CB 3B               484 	SRL	E
   0112 CB 3B               485 	SRL	E
   0114 3E 07               486 	LD	A,#<7
   0116 A3                  487 	AND	E
   0117 5F                  488 	LD	E,A
   0118 16 00               489 	LD	D,#0
   011A C3 A8 06            490 	JP	.L36
   011D                     491 .L52:
                            492 ;	return soundReg->mode1.sweepMode;
   011D FA 01 00            493 	LD	A,(_soundReg+1)
   0120 57                  494 	LD	D,A
   0121 FA 00 00            495 	LD	A,(_soundReg)
   0124 5F                  496 	LD	E,A
   0125 1A                  497 	LD	A,(DE)
   0126 5F                  498 	LD	E,A
   0127 CB 3B               499 	SRL	E
   0129 CB 3B               500 	SRL	E
   012B CB 3B               501 	SRL	E
   012D 3E 01               502 	LD	A,#<1
   012F A3                  503 	AND	E
   0130 5F                  504 	LD	E,A
ASxxxx Assembler V01.75  (GameBoy Z80-like CPU), page 10.



   0131 16 00               505 	LD	D,#0
   0133 C3 A8 06            506 	JP	.L36
   0136                     507 .L53:
                            508 ;	return soundReg->mode1.sweepShifts;
   0136 FA 01 00            509 	LD	A,(_soundReg+1)
   0139 57                  510 	LD	D,A
   013A FA 00 00            511 	LD	A,(_soundReg)
   013D 5F                  512 	LD	E,A
   013E 1A                  513 	LD	A,(DE)
   013F 5F                  514 	LD	E,A
   0140 3E 07               515 	LD	A,#<7
   0142 A3                  516 	AND	E
   0143 5F                  517 	LD	E,A
   0144 16 00               518 	LD	D,#0
   0146 C3 A8 06            519 	JP	.L36
   0149                     520 .L54:
                            521 ;	return soundReg->mode1.patternDuty;
   0149 FA 01 00            522 	LD	A,(_soundReg+1)
   014C 57                  523 	LD	D,A
   014D FA 00 00            524 	LD	A,(_soundReg)
   0150 5F                  525 	LD	E,A
   0151 13                  526 	INC	DE
   0152 1A                  527 	LD	A,(DE)
   0153 5F                  528 	LD	E,A
   0154 CB 3B               529 	SRL	E
   0156 CB 3B               530 	SRL	E
   0158 CB 3B               531 	SRL	E
   015A CB 3B               532 	SRL	E
   015C CB 3B               533 	SRL	E
   015E CB 3B               534 	SRL	E
   0160 3E 03               535 	LD	A,#<3
   0162 A3                  536 	AND	E
   0163 5F                  537 	LD	E,A
   0164 16 00               538 	LD	D,#0
   0166 C3 A8 06            539 	JP	.L36
   0169                     540 .L55:
                            541 ;	return soundReg->mode1.soundLength;
   0169 FA 01 00            542 	LD	A,(_soundReg+1)
   016C 57                  543 	LD	D,A
   016D FA 00 00            544 	LD	A,(_soundReg)
   0170 5F                  545 	LD	E,A
   0171 13                  546 	INC	DE
   0172 1A                  547 	LD	A,(DE)
   0173 5F                  548 	LD	E,A
   0174 3E 3F               549 	LD	A,#<63
   0176 A3                  550 	AND	E
   0177 5F                  551 	LD	E,A
   0178 16 00               552 	LD	D,#0
   017A C3 A8 06            553 	JP	.L36
   017D                     554 .L56:
                            555 ;	return soundReg->mode1.envInitialValue;
   017D FA 01 00            556 	LD	A,(_soundReg+1)
   0180 57                  557 	LD	D,A
   0181 FA 00 00            558 	LD	A,(_soundReg)
   0184 5F                  559 	LD	E,A
   0185 13                  560 	INC	DE
ASxxxx Assembler V01.75  (GameBoy Z80-like CPU), page 11.



   0186 13                  561 	INC	DE
   0187 1A                  562 	LD	A,(DE)
   0188 5F                  563 	LD	E,A
   0189 CB 3B               564 	SRL	E
   018B CB 3B               565 	SRL	E
   018D CB 3B               566 	SRL	E
   018F CB 3B               567 	SRL	E
   0191 3E 0F               568 	LD	A,#<15
   0193 A3                  569 	AND	E
   0194 5F                  570 	LD	E,A
   0195 16 00               571 	LD	D,#0
   0197 C3 A8 06            572 	JP	.L36
   019A                     573 .L57:
                            574 ;	return soundReg->mode1.envMode;
   019A FA 01 00            575 	LD	A,(_soundReg+1)
   019D 57                  576 	LD	D,A
   019E FA 00 00            577 	LD	A,(_soundReg)
   01A1 5F                  578 	LD	E,A
   01A2 13                  579 	INC	DE
   01A3 13                  580 	INC	DE
   01A4 1A                  581 	LD	A,(DE)
   01A5 5F                  582 	LD	E,A
   01A6 CB 3B               583 	SRL	E
   01A8 CB 3B               584 	SRL	E
   01AA CB 3B               585 	SRL	E
   01AC 3E 01               586 	LD	A,#<1
   01AE A3                  587 	AND	E
   01AF 5F                  588 	LD	E,A
   01B0 16 00               589 	LD	D,#0
   01B2 C3 A8 06            590 	JP	.L36
   01B5                     591 .L58:
                            592 ;	return soundReg->mode1.envNbSweep;
   01B5 FA 01 00            593 	LD	A,(_soundReg+1)
   01B8 57                  594 	LD	D,A
   01B9 FA 00 00            595 	LD	A,(_soundReg)
   01BC 5F                  596 	LD	E,A
   01BD 13                  597 	INC	DE
   01BE 13                  598 	INC	DE
   01BF 1A                  599 	LD	A,(DE)
   01C0 5F                  600 	LD	E,A
   01C1 3E 07               601 	LD	A,#<7
   01C3 A3                  602 	AND	E
   01C4 5F                  603 	LD	E,A
   01C5 16 00               604 	LD	D,#0
   01C7 C3 A8 06            605 	JP	.L36
   01CA                     606 .L59:
                            607 ;	return ((UWORD)soundReg->mode1.frequencyHigh << 8) +
   01CA FA 01 00            608 	LD	A,(_soundReg+1)
   01CD 57                  609 	LD	D,A
   01CE FA 00 00            610 	LD	A,(_soundReg)
   01D1 5F                  611 	LD	E,A
   01D2 21 04 00            612 	LD	HL,#4
   01D5 19                  613 	ADD	HL,DE
   01D6 44                  614 	LD	B,H
   01D7 4D                  615 	LD	C,L
   01D8 0A                  616 	LD	A,(BC)
ASxxxx Assembler V01.75  (GameBoy Z80-like CPU), page 12.



   01D9 4F                  617 	LD	C,A
   01DA 3E 07               618 	LD	A,#<7
   01DC A1                  619 	AND	C
   01DD 4F                  620 	LD	C,A
   01DE 06 00               621 	LD	B,#0
   01E0 79                  622 	LD	A,C
   01E1 47                  623 	LD	B,A
   01E2 AF                  624 	XOR	A
   01E3 4F                  625 	LD	C,A
   01E4 13                  626 	INC	DE
   01E5 13                  627 	INC	DE
   01E6 13                  628 	INC	DE
   01E7 1A                  629 	LD	A,(DE)
   01E8 5F                  630 	LD	E,A
   01E9 16 00               631 	LD	D,#0
   01EB 79                  632 	LD	A,C
   01EC 83                  633 	ADD	E
   01ED 5F                  634 	LD	E,A
   01EE 78                  635 	LD	A,B
   01EF 8A                  636 	ADC	D
   01F0 57                  637 	LD	D,A
   01F1 C3 A8 06            638 	JP	.L36
   01F4                     639 .L60:
                            640 ;	return soundReg->mode1.counter_ConsSel;
   01F4 FA 01 00            641 	LD	A,(_soundReg+1)
   01F7 57                  642 	LD	D,A
   01F8 FA 00 00            643 	LD	A,(_soundReg)
   01FB 5F                  644 	LD	E,A
   01FC 21 04 00            645 	LD	HL,#4
   01FF 19                  646 	ADD	HL,DE
   0200 54                  647 	LD	D,H
   0201 5D                  648 	LD	E,L
   0202 1A                  649 	LD	A,(DE)
   0203 5F                  650 	LD	E,A
   0204 CB 3B               651 	SRL	E
   0206 CB 3B               652 	SRL	E
   0208 CB 3B               653 	SRL	E
   020A CB 3B               654 	SRL	E
   020C CB 3B               655 	SRL	E
   020E CB 3B               656 	SRL	E
   0210 3E 01               657 	LD	A,#<1
   0212 A3                  658 	AND	E
   0213 5F                  659 	LD	E,A
   0214 16 00               660 	LD	D,#0
   0216 C3 A8 06            661 	JP	.L36
   0219                     662 .L61:
                            663 ;	return soundReg->control.Sound1_To_SO1;
   0219 FA 01 00            664 	LD	A,(_soundReg+1)
   021C 57                  665 	LD	D,A
   021D FA 00 00            666 	LD	A,(_soundReg)
   0220 5F                  667 	LD	E,A
   0221 21 15 00            668 	LD	HL,#21
   0224 19                  669 	ADD	HL,DE
   0225 54                  670 	LD	D,H
   0226 5D                  671 	LD	E,L
   0227 1A                  672 	LD	A,(DE)
ASxxxx Assembler V01.75  (GameBoy Z80-like CPU), page 13.



   0228 5F                  673 	LD	E,A
   0229 3E 01               674 	LD	A,#<1
   022B A3                  675 	AND	E
   022C 5F                  676 	LD	E,A
   022D 16 00               677 	LD	D,#0
   022F C3 A8 06            678 	JP	.L36
   0232                     679 .L62:
                            680 ;	return soundReg->control.Sound1_To_SO2;
   0232 FA 01 00            681 	LD	A,(_soundReg+1)
   0235 57                  682 	LD	D,A
   0236 FA 00 00            683 	LD	A,(_soundReg)
   0239 5F                  684 	LD	E,A
   023A 21 15 00            685 	LD	HL,#21
   023D 19                  686 	ADD	HL,DE
   023E 54                  687 	LD	D,H
   023F 5D                  688 	LD	E,L
   0240 1A                  689 	LD	A,(DE)
   0241 5F                  690 	LD	E,A
   0242 CB 3B               691 	SRL	E
   0244 CB 3B               692 	SRL	E
   0246 CB 3B               693 	SRL	E
   0248 CB 3B               694 	SRL	E
   024A 3E 01               695 	LD	A,#<1
   024C A3                  696 	AND	E
   024D 5F                  697 	LD	E,A
   024E 16 00               698 	LD	D,#0
   0250 C3 A8 06            699 	JP	.L36
   0253                     700 .L63:
                            701 ;	return soundReg->control.Sound1_On_Off;
                            702 ;  } else if(mode == 2) {
   0253 FA 01 00            703 	LD	A,(_soundReg+1)
   0256 57                  704 	LD	D,A
   0257 FA 00 00            705 	LD	A,(_soundReg)
   025A 5F                  706 	LD	E,A
   025B 21 16 00            707 	LD	HL,#22
   025E 19                  708 	ADD	HL,DE
   025F 54                  709 	LD	D,H
   0260 5D                  710 	LD	E,L
   0261 1A                  711 	LD	A,(DE)
   0262 5F                  712 	LD	E,A
   0263 3E 01               713 	LD	A,#<1
   0265 A3                  714 	AND	E
   0266 5F                  715 	LD	E,A
   0267 16 00               716 	LD	D,#0
   0269 C3 A8 06            717 	JP	.L36
   026C                     718 .L47:
                            719 ;    switch(line)
   026C F8 04               720 	LDA	HL,4(SP)
   026E 3E 02               721 	LD	A,#<2
   0270 BE                  722 	CP	(HL)
   0271 C2 E1 03            723 	JP	NZ,.L66
   0274 F8 05               724 	LDA	HL,5(SP)
   0276 5E                  725 	LD	E,(HL)
   0277 7B                  726 	LD	A,E
   0278 C6 80               727 	ADD	#0x80
   027A FE 89               728 	CP	#<137
ASxxxx Assembler V01.75  (GameBoy Z80-like CPU), page 14.



   027C 28 03               729 	JR	Z,.L115
   027E D2 93 02            730 	JP	NC,.L80
   0281                     731 .L115:
   0281 7B                  732 	LD	A,E
   0282 07                  733 	RLCA
   0283 9F                  734 	SBC	A
   0284 57                  735 	LD	D,A
   0285 CB 23               736 	SLA	E
   0287 CB 12               737 	RL	D
   0289 21 24 00            738 	LD	HL,#.L81
   028C 19                  739 	ADD	HL,DE
   028D 54                  740 	LD	D,H
   028E 5D                  741 	LD	E,L
   028F 2A                  742 	LD	A,(HL+)
   0290 66                  743 	LD	H,(HL)
   0291 6F                  744 	LD	L,A
   0292 E9                  745 	JP	(HL)
                            746 	;; _CODE ends
                            747 	.area	_LIT
   0024                     748 .L81:
   0024 9F 02               749 	.dw	.L70
   0026 C4 02               750 	.dw	.L71
   0028 DD 02               751 	.dw	.L72
   002A FE 02               752 	.dw	.L73
   002C 1D 03               753 	.dw	.L74
   002E 36 03               754 	.dw	.L75
   0030 63 03               755 	.dw	.L76
   0032 88 03               756 	.dw	.L77
   0034 A3 03               757 	.dw	.L78
   0036 C6 03               758 	.dw	.L79
                            759 	;; _LIT ends
                            760 	.area	_CODE
   0293                     761 .L80:
                            762 ;      {
   0293 F8 05               763 	LDA	HL,5(SP)
   0295 5E                  764 	LD	E,(HL)
   0296 7B                  765 	LD	A,E
   0297 FE 21               766 	CP	#<33
   0299 CA 36 03            767 	JP	Z,.L75
   029C C3 A0 06            768 	JP	.L67
   029F                     769 .L70:
                            770 ;	return soundReg->mode2.patternDuty;
   029F FA 01 00            771 	LD	A,(_soundReg+1)
   02A2 57                  772 	LD	D,A
   02A3 FA 00 00            773 	LD	A,(_soundReg)
   02A6 5F                  774 	LD	E,A
   02A7 21 06 00            775 	LD	HL,#6
   02AA 19                  776 	ADD	HL,DE
   02AB 54                  777 	LD	D,H
   02AC 5D                  778 	LD	E,L
   02AD 1A                  779 	LD	A,(DE)
   02AE 4F                  780 	LD	C,A
   02AF CB 39               781 	SRL	C
   02B1 CB 39               782 	SRL	C
   02B3 CB 39               783 	SRL	C
   02B5 CB 39               784 	SRL	C
ASxxxx Assembler V01.75  (GameBoy Z80-like CPU), page 15.



   02B7 CB 39               785 	SRL	C
   02B9 CB 39               786 	SRL	C
   02BB 3E 03               787 	LD	A,#<3
   02BD A1                  788 	AND	C
   02BE 5F                  789 	LD	E,A
   02BF 16 00               790 	LD	D,#0
   02C1 C3 A8 06            791 	JP	.L36
   02C4                     792 .L71:
                            793 ;	return soundReg->mode2.soundLength;
   02C4 FA 01 00            794 	LD	A,(_soundReg+1)
   02C7 57                  795 	LD	D,A
   02C8 FA 00 00            796 	LD	A,(_soundReg)
   02CB 5F                  797 	LD	E,A
   02CC 21 06 00            798 	LD	HL,#6
   02CF 19                  799 	ADD	HL,DE
   02D0 54                  800 	LD	D,H
   02D1 5D                  801 	LD	E,L
   02D2 1A                  802 	LD	A,(DE)
   02D3 5F                  803 	LD	E,A
   02D4 3E 3F               804 	LD	A,#<63
   02D6 A3                  805 	AND	E
   02D7 5F                  806 	LD	E,A
   02D8 16 00               807 	LD	D,#0
   02DA C3 A8 06            808 	JP	.L36
   02DD                     809 .L72:
                            810 ;	return soundReg->mode2.envInitialValue;
   02DD FA 01 00            811 	LD	A,(_soundReg+1)
   02E0 57                  812 	LD	D,A
   02E1 FA 00 00            813 	LD	A,(_soundReg)
   02E4 5F                  814 	LD	E,A
   02E5 21 07 00            815 	LD	HL,#7
   02E8 19                  816 	ADD	HL,DE
   02E9 54                  817 	LD	D,H
   02EA 5D                  818 	LD	E,L
   02EB 1A                  819 	LD	A,(DE)
   02EC 5F                  820 	LD	E,A
   02ED CB 3B               821 	SRL	E
   02EF CB 3B               822 	SRL	E
   02F1 CB 3B               823 	SRL	E
   02F3 CB 3B               824 	SRL	E
   02F5 3E 0F               825 	LD	A,#<15
   02F7 A3                  826 	AND	E
   02F8 5F                  827 	LD	E,A
   02F9 16 00               828 	LD	D,#0
   02FB C3 A8 06            829 	JP	.L36
   02FE                     830 .L73:
                            831 ;	return soundReg->mode2.envMode;
   02FE FA 01 00            832 	LD	A,(_soundReg+1)
   0301 57                  833 	LD	D,A
   0302 FA 00 00            834 	LD	A,(_soundReg)
   0305 5F                  835 	LD	E,A
   0306 21 07 00            836 	LD	HL,#7
   0309 19                  837 	ADD	HL,DE
   030A 54                  838 	LD	D,H
   030B 5D                  839 	LD	E,L
   030C 1A                  840 	LD	A,(DE)
ASxxxx Assembler V01.75  (GameBoy Z80-like CPU), page 16.



   030D 5F                  841 	LD	E,A
   030E CB 3B               842 	SRL	E
   0310 CB 3B               843 	SRL	E
   0312 CB 3B               844 	SRL	E
   0314 3E 01               845 	LD	A,#<1
   0316 A3                  846 	AND	E
   0317 5F                  847 	LD	E,A
   0318 16 00               848 	LD	D,#0
   031A C3 A8 06            849 	JP	.L36
   031D                     850 .L74:
                            851 ;	return soundReg->mode2.envNbStep;
   031D FA 01 00            852 	LD	A,(_soundReg+1)
   0320 57                  853 	LD	D,A
   0321 FA 00 00            854 	LD	A,(_soundReg)
   0324 5F                  855 	LD	E,A
   0325 21 07 00            856 	LD	HL,#7
   0328 19                  857 	ADD	HL,DE
   0329 54                  858 	LD	D,H
   032A 5D                  859 	LD	E,L
   032B 1A                  860 	LD	A,(DE)
   032C 5F                  861 	LD	E,A
   032D 3E 07               862 	LD	A,#<7
   032F A3                  863 	AND	E
   0330 5F                  864 	LD	E,A
   0331 16 00               865 	LD	D,#0
   0333 C3 A8 06            866 	JP	.L36
   0336                     867 .L75:
                            868 ;	return ((UWORD)soundReg->mode2.frequencyHigh << 8) +
   0336 FA 01 00            869 	LD	A,(_soundReg+1)
   0339 57                  870 	LD	D,A
   033A FA 00 00            871 	LD	A,(_soundReg)
   033D 5F                  872 	LD	E,A
   033E 21 09 00            873 	LD	HL,#9
   0341 19                  874 	ADD	HL,DE
   0342 44                  875 	LD	B,H
   0343 4D                  876 	LD	C,L
   0344 0A                  877 	LD	A,(BC)
   0345 4F                  878 	LD	C,A
   0346 3E 07               879 	LD	A,#<7
   0348 A1                  880 	AND	C
   0349 4F                  881 	LD	C,A
   034A 06 00               882 	LD	B,#0
   034C 79                  883 	LD	A,C
   034D 47                  884 	LD	B,A
   034E AF                  885 	XOR	A
   034F 4F                  886 	LD	C,A
   0350 21 08 00            887 	LD	HL,#8
   0353 19                  888 	ADD	HL,DE
   0354 54                  889 	LD	D,H
   0355 5D                  890 	LD	E,L
   0356 1A                  891 	LD	A,(DE)
   0357 5F                  892 	LD	E,A
   0358 16 00               893 	LD	D,#0
   035A 79                  894 	LD	A,C
   035B 83                  895 	ADD	E
   035C 5F                  896 	LD	E,A
ASxxxx Assembler V01.75  (GameBoy Z80-like CPU), page 17.



   035D 78                  897 	LD	A,B
   035E 8A                  898 	ADC	D
   035F 57                  899 	LD	D,A
   0360 C3 A8 06            900 	JP	.L36
   0363                     901 .L76:
                            902 ;	return soundReg->mode2.counter_ConsSel;
   0363 FA 01 00            903 	LD	A,(_soundReg+1)
   0366 57                  904 	LD	D,A
   0367 FA 00 00            905 	LD	A,(_soundReg)
   036A 5F                  906 	LD	E,A
   036B 21 09 00            907 	LD	HL,#9
   036E 19                  908 	ADD	HL,DE
   036F 54                  909 	LD	D,H
   0370 5D                  910 	LD	E,L
   0371 1A                  911 	LD	A,(DE)
   0372 5F                  912 	LD	E,A
   0373 CB 3B               913 	SRL	E
   0375 CB 3B               914 	SRL	E
   0377 CB 3B               915 	SRL	E
   0379 CB 3B               916 	SRL	E
   037B CB 3B               917 	SRL	E
   037D CB 3B               918 	SRL	E
   037F 3E 01               919 	LD	A,#<1
   0381 A3                  920 	AND	E
   0382 5F                  921 	LD	E,A
   0383 16 00               922 	LD	D,#0
   0385 C3 A8 06            923 	JP	.L36
   0388                     924 .L77:
                            925 ;	return soundReg->control.Sound2_To_SO1;
   0388 FA 01 00            926 	LD	A,(_soundReg+1)
   038B 57                  927 	LD	D,A
   038C FA 00 00            928 	LD	A,(_soundReg)
   038F 5F                  929 	LD	E,A
   0390 21 15 00            930 	LD	HL,#21
   0393 19                  931 	ADD	HL,DE
   0394 54                  932 	LD	D,H
   0395 5D                  933 	LD	E,L
   0396 1A                  934 	LD	A,(DE)
   0397 5F                  935 	LD	E,A
   0398 CB 3B               936 	SRL	E
   039A 3E 01               937 	LD	A,#<1
   039C A3                  938 	AND	E
   039D 5F                  939 	LD	E,A
   039E 16 00               940 	LD	D,#0
   03A0 C3 A8 06            941 	JP	.L36
   03A3                     942 .L78:
                            943 ;	return soundReg->control.Sound2_To_SO2;
   03A3 FA 01 00            944 	LD	A,(_soundReg+1)
   03A6 57                  945 	LD	D,A
   03A7 FA 00 00            946 	LD	A,(_soundReg)
   03AA 5F                  947 	LD	E,A
   03AB 21 15 00            948 	LD	HL,#21
   03AE 19                  949 	ADD	HL,DE
   03AF 54                  950 	LD	D,H
   03B0 5D                  951 	LD	E,L
   03B1 1A                  952 	LD	A,(DE)
ASxxxx Assembler V01.75  (GameBoy Z80-like CPU), page 18.



   03B2 5F                  953 	LD	E,A
   03B3 CB 3B               954 	SRL	E
   03B5 CB 3B               955 	SRL	E
   03B7 CB 3B               956 	SRL	E
   03B9 CB 3B               957 	SRL	E
   03BB CB 3B               958 	SRL	E
   03BD 3E 01               959 	LD	A,#<1
   03BF A3                  960 	AND	E
   03C0 5F                  961 	LD	E,A
   03C1 16 00               962 	LD	D,#0
   03C3 C3 A8 06            963 	JP	.L36
   03C6                     964 .L79:
                            965 ;	return soundReg->control.Sound2_On_Off;
                            966 ;  } else if(mode == 3) {
   03C6 FA 01 00            967 	LD	A,(_soundReg+1)
   03C9 57                  968 	LD	D,A
   03CA FA 00 00            969 	LD	A,(_soundReg)
   03CD 5F                  970 	LD	E,A
   03CE 21 16 00            971 	LD	HL,#22
   03D1 19                  972 	ADD	HL,DE
   03D2 54                  973 	LD	D,H
   03D3 5D                  974 	LD	E,L
   03D4 1A                  975 	LD	A,(DE)
   03D5 5F                  976 	LD	E,A
   03D6 CB 3B               977 	SRL	E
   03D8 3E 01               978 	LD	A,#<1
   03DA A3                  979 	AND	E
   03DB 5F                  980 	LD	E,A
   03DC 16 00               981 	LD	D,#0
   03DE C3 A8 06            982 	JP	.L36
   03E1                     983 .L66:
                            984 ;    switch(line)
   03E1 F8 04               985 	LDA	HL,4(SP)
   03E3 3E 03               986 	LD	A,#<3
   03E5 BE                  987 	CP	(HL)
   03E6 C2 24 05            988 	JP	NZ,.L82
   03E9 F8 05               989 	LDA	HL,5(SP)
   03EB 5E                  990 	LD	E,(HL)
   03EC 7B                  991 	LD	A,E
   03ED C6 80               992 	ADD	#0x80
   03EF FE 87               993 	CP	#<135
   03F1 28 03               994 	JR	Z,.L116
   03F3 D2 08 04            995 	JP	NC,.L94
   03F6                     996 .L116:
   03F6 7B                  997 	LD	A,E
   03F7 07                  998 	RLCA
   03F8 9F                  999 	SBC	A
   03F9 57                 1000 	LD	D,A
   03FA CB 23              1001 	SLA	E
   03FC CB 12              1002 	RL	D
   03FE 21 38 00           1003 	LD	HL,#.L95
   0401 19                 1004 	ADD	HL,DE
   0402 54                 1005 	LD	D,H
   0403 5D                 1006 	LD	E,L
   0404 2A                 1007 	LD	A,(HL+)
   0405 66                 1008 	LD	H,(HL)
ASxxxx Assembler V01.75  (GameBoy Z80-like CPU), page 19.



   0406 6F                 1009 	LD	L,A
   0407 E9                 1010 	JP	(HL)
                           1011 	;; _CODE ends
                           1012 	.area	_LIT
   0038                    1013 .L95:
   0038 14 04              1014 	.dw	.L86
   003A 3B 04              1015 	.dw	.L87
   003C 50 04              1016 	.dw	.L88
   003E 73 04              1017 	.dw	.L89
   0040 A0 04              1018 	.dw	.L90
   0042 C5 04              1019 	.dw	.L91
   0044 E2 04              1020 	.dw	.L92
   0046 07 05              1021 	.dw	.L93
                           1022 	;; _LIT ends
                           1023 	.area	_CODE
   0408                    1024 .L94:
                           1025 ;      {
   0408 F8 05              1026 	LDA	HL,5(SP)
   040A 5E                 1027 	LD	E,(HL)
   040B 7B                 1028 	LD	A,E
   040C FE 21              1029 	CP	#<33
   040E CA 73 04           1030 	JP	Z,.L89
   0411 C3 A0 06           1031 	JP	.L83
   0414                    1032 .L86:
                           1033 ;	return soundReg->mode3.on_Off;
   0414 FA 01 00           1034 	LD	A,(_soundReg+1)
   0417 57                 1035 	LD	D,A
   0418 FA 00 00           1036 	LD	A,(_soundReg)
   041B 5F                 1037 	LD	E,A
   041C 21 0A 00           1038 	LD	HL,#10
   041F 19                 1039 	ADD	HL,DE
   0420 54                 1040 	LD	D,H
   0421 5D                 1041 	LD	E,L
   0422 1A                 1042 	LD	A,(DE)
   0423 5F                 1043 	LD	E,A
   0424 CB 3B              1044 	SRL	E
   0426 CB 3B              1045 	SRL	E
   0428 CB 3B              1046 	SRL	E
   042A CB 3B              1047 	SRL	E
   042C CB 3B              1048 	SRL	E
   042E CB 3B              1049 	SRL	E
   0430 CB 3B              1050 	SRL	E
   0432 3E 01              1051 	LD	A,#<1
   0434 A3                 1052 	AND	E
   0435 5F                 1053 	LD	E,A
   0436 16 00              1054 	LD	D,#0
   0438 C3 A8 06           1055 	JP	.L36
   043B                    1056 .L87:
                           1057 ;	return soundReg->mode3.soundLength;
   043B FA 01 00           1058 	LD	A,(_soundReg+1)
   043E 57                 1059 	LD	D,A
   043F FA 00 00           1060 	LD	A,(_soundReg)
   0442 5F                 1061 	LD	E,A
   0443 21 0B 00           1062 	LD	HL,#11
   0446 19                 1063 	ADD	HL,DE
   0447 54                 1064 	LD	D,H
ASxxxx Assembler V01.75  (GameBoy Z80-like CPU), page 20.



   0448 5D                 1065 	LD	E,L
   0449 1A                 1066 	LD	A,(DE)
   044A 5F                 1067 	LD	E,A
   044B 16 00              1068 	LD	D,#0
   044D C3 A8 06           1069 	JP	.L36
   0450                    1070 .L88:
                           1071 ;	return soundReg->mode3.selOutputLevel;
   0450 FA 01 00           1072 	LD	A,(_soundReg+1)
   0453 57                 1073 	LD	D,A
   0454 FA 00 00           1074 	LD	A,(_soundReg)
   0457 5F                 1075 	LD	E,A
   0458 21 0C 00           1076 	LD	HL,#12
   045B 19                 1077 	ADD	HL,DE
   045C 54                 1078 	LD	D,H
   045D 5D                 1079 	LD	E,L
   045E 1A                 1080 	LD	A,(DE)
   045F 5F                 1081 	LD	E,A
   0460 CB 3B              1082 	SRL	E
   0462 CB 3B              1083 	SRL	E
   0464 CB 3B              1084 	SRL	E
   0466 CB 3B              1085 	SRL	E
   0468 CB 3B              1086 	SRL	E
   046A 3E 03              1087 	LD	A,#<3
   046C A3                 1088 	AND	E
   046D 5F                 1089 	LD	E,A
   046E 16 00              1090 	LD	D,#0
   0470 C3 A8 06           1091 	JP	.L36
   0473                    1092 .L89:
                           1093 ;	return ((UWORD)soundReg->mode3.frequencyHigh << 8) +
   0473 FA 01 00           1094 	LD	A,(_soundReg+1)
   0476 57                 1095 	LD	D,A
   0477 FA 00 00           1096 	LD	A,(_soundReg)
   047A 5F                 1097 	LD	E,A
   047B 21 0E 00           1098 	LD	HL,#14
   047E 19                 1099 	ADD	HL,DE
   047F 44                 1100 	LD	B,H
   0480 4D                 1101 	LD	C,L
   0481 0A                 1102 	LD	A,(BC)
   0482 4F                 1103 	LD	C,A
   0483 3E 07              1104 	LD	A,#<7
   0485 A1                 1105 	AND	C
   0486 4F                 1106 	LD	C,A
   0487 06 00              1107 	LD	B,#0
   0489 79                 1108 	LD	A,C
   048A 47                 1109 	LD	B,A
   048B AF                 1110 	XOR	A
   048C 4F                 1111 	LD	C,A
   048D 21 0D 00           1112 	LD	HL,#13
   0490 19                 1113 	ADD	HL,DE
   0491 54                 1114 	LD	D,H
   0492 5D                 1115 	LD	E,L
   0493 1A                 1116 	LD	A,(DE)
   0494 5F                 1117 	LD	E,A
   0495 16 00              1118 	LD	D,#0
   0497 79                 1119 	LD	A,C
   0498 83                 1120 	ADD	E
ASxxxx Assembler V01.75  (GameBoy Z80-like CPU), page 21.



   0499 5F                 1121 	LD	E,A
   049A 78                 1122 	LD	A,B
   049B 8A                 1123 	ADC	D
   049C 57                 1124 	LD	D,A
   049D C3 A8 06           1125 	JP	.L36
   04A0                    1126 .L90:
                           1127 ;	return soundReg->mode3.counter_ConsSel;
   04A0 FA 01 00           1128 	LD	A,(_soundReg+1)
   04A3 57                 1129 	LD	D,A
   04A4 FA 00 00           1130 	LD	A,(_soundReg)
   04A7 5F                 1131 	LD	E,A
   04A8 21 0E 00           1132 	LD	HL,#14
   04AB 19                 1133 	ADD	HL,DE
   04AC 54                 1134 	LD	D,H
   04AD 5D                 1135 	LD	E,L
   04AE 1A                 1136 	LD	A,(DE)
   04AF 5F                 1137 	LD	E,A
   04B0 CB 3B              1138 	SRL	E
   04B2 CB 3B              1139 	SRL	E
   04B4 CB 3B              1140 	SRL	E
   04B6 CB 3B              1141 	SRL	E
   04B8 CB 3B              1142 	SRL	E
   04BA CB 3B              1143 	SRL	E
   04BC 3E 01              1144 	LD	A,#<1
   04BE A3                 1145 	AND	E
   04BF 5F                 1146 	LD	E,A
   04C0 16 00              1147 	LD	D,#0
   04C2 C3 A8 06           1148 	JP	.L36
   04C5                    1149 .L91:
                           1150 ;	return soundReg->control.Sound3_To_SO1;
   04C5 FA 01 00           1151 	LD	A,(_soundReg+1)
   04C8 57                 1152 	LD	D,A
   04C9 FA 00 00           1153 	LD	A,(_soundReg)
   04CC 5F                 1154 	LD	E,A
   04CD 21 15 00           1155 	LD	HL,#21
   04D0 19                 1156 	ADD	HL,DE
   04D1 54                 1157 	LD	D,H
   04D2 5D                 1158 	LD	E,L
   04D3 1A                 1159 	LD	A,(DE)
   04D4 5F                 1160 	LD	E,A
   04D5 CB 3B              1161 	SRL	E
   04D7 CB 3B              1162 	SRL	E
   04D9 3E 01              1163 	LD	A,#<1
   04DB A3                 1164 	AND	E
   04DC 5F                 1165 	LD	E,A
   04DD 16 00              1166 	LD	D,#0
   04DF C3 A8 06           1167 	JP	.L36
   04E2                    1168 .L92:
                           1169 ;	return soundReg->control.Sound3_To_SO2;
   04E2 FA 01 00           1170 	LD	A,(_soundReg+1)
   04E5 57                 1171 	LD	D,A
   04E6 FA 00 00           1172 	LD	A,(_soundReg)
   04E9 5F                 1173 	LD	E,A
   04EA 21 15 00           1174 	LD	HL,#21
   04ED 19                 1175 	ADD	HL,DE
   04EE 54                 1176 	LD	D,H
ASxxxx Assembler V01.75  (GameBoy Z80-like CPU), page 22.



   04EF 5D                 1177 	LD	E,L
   04F0 1A                 1178 	LD	A,(DE)
   04F1 5F                 1179 	LD	E,A
   04F2 CB 3B              1180 	SRL	E
   04F4 CB 3B              1181 	SRL	E
   04F6 CB 3B              1182 	SRL	E
   04F8 CB 3B              1183 	SRL	E
   04FA CB 3B              1184 	SRL	E
   04FC CB 3B              1185 	SRL	E
   04FE 3E 01              1186 	LD	A,#<1
   0500 A3                 1187 	AND	E
   0501 5F                 1188 	LD	E,A
   0502 16 00              1189 	LD	D,#0
   0504 C3 A8 06           1190 	JP	.L36
   0507                    1191 .L93:
                           1192 ;	return soundReg->control.Sound3_On_Off;
                           1193 ;  } else if(mode == 4) {
   0507 FA 01 00           1194 	LD	A,(_soundReg+1)
   050A 57                 1195 	LD	D,A
   050B FA 00 00           1196 	LD	A,(_soundReg)
   050E 5F                 1197 	LD	E,A
   050F 21 16 00           1198 	LD	HL,#22
   0512 19                 1199 	ADD	HL,DE
   0513 54                 1200 	LD	D,H
   0514 5D                 1201 	LD	E,L
   0515 1A                 1202 	LD	A,(DE)
   0516 5F                 1203 	LD	E,A
   0517 CB 3B              1204 	SRL	E
   0519 CB 3B              1205 	SRL	E
   051B 3E 01              1206 	LD	A,#<1
   051D A3                 1207 	AND	E
   051E 5F                 1208 	LD	E,A
   051F 16 00              1209 	LD	D,#0
   0521 C3 A8 06           1210 	JP	.L36
   0524                    1211 .L82:
                           1212 ;    switch(line)
   0524 F8 04              1213 	LDA	HL,4(SP)
   0526 3E 04              1214 	LD	A,#<4
   0528 BE                 1215 	CP	(HL)
   0529 C2 A0 06           1216 	JP	NZ,.L96
   052C F8 05              1217 	LDA	HL,5(SP)
   052E 5E                 1218 	LD	E,(HL)
   052F 7B                 1219 	LD	A,E
   0530 C6 80              1220 	ADD	#0x80
   0532 FE 8A              1221 	CP	#<138
   0534 28 03              1222 	JR	Z,.L117
   0536 D2 A0 06           1223 	JP	NC,.L98
   0539                    1224 .L117:
   0539 7B                 1225 	LD	A,E
   053A 07                 1226 	RLCA
   053B 9F                 1227 	SBC	A
   053C 57                 1228 	LD	D,A
   053D CB 23              1229 	SLA	E
   053F CB 12              1230 	RL	D
   0541 21 48 00           1231 	LD	HL,#.L111
   0544 19                 1232 	ADD	HL,DE
ASxxxx Assembler V01.75  (GameBoy Z80-like CPU), page 23.



   0545 54                 1233 	LD	D,H
   0546 5D                 1234 	LD	E,L
   0547 2A                 1235 	LD	A,(HL+)
   0548 66                 1236 	LD	H,(HL)
   0549 6F                 1237 	LD	L,A
   054A E9                 1238 	JP	(HL)
                           1239 	;; _CODE ends
                           1240 	.area	_LIT
   0048                    1241 .L111:
   0048 4B 05              1242 	.dw	.L100
   004A 64 05              1243 	.dw	.L101
   004C 85 05              1244 	.dw	.L102
   004E A4 05              1245 	.dw	.L103
   0050 BD 05              1246 	.dw	.L104
   0052 DE 05              1247 	.dw	.L105
   0054 FD 05              1248 	.dw	.L106
   0056 16 06              1249 	.dw	.L107
   0058 3B 06              1250 	.dw	.L108
   005A 5A 06              1251 	.dw	.L109
   005C 81 06              1252 	.dw	.L110
                           1253 	;; _LIT ends
                           1254 	.area	_CODE
                           1255 ;      {
   054B                    1256 .L100:
                           1257 ;	return soundReg->mode4.soundLength;
   054B FA 01 00           1258 	LD	A,(_soundReg+1)
   054E 57                 1259 	LD	D,A
   054F FA 00 00           1260 	LD	A,(_soundReg)
   0552 5F                 1261 	LD	E,A
   0553 21 10 00           1262 	LD	HL,#16
   0556 19                 1263 	ADD	HL,DE
   0557 54                 1264 	LD	D,H
   0558 5D                 1265 	LD	E,L
   0559 1A                 1266 	LD	A,(DE)
   055A 5F                 1267 	LD	E,A
   055B 3E 3F              1268 	LD	A,#<63
   055D A3                 1269 	AND	E
   055E 5F                 1270 	LD	E,A
   055F 16 00              1271 	LD	D,#0
   0561 C3 A8 06           1272 	JP	.L36
   0564                    1273 .L101:
                           1274 ;	return soundReg->mode4.envInitialValue;
   0564 FA 01 00           1275 	LD	A,(_soundReg+1)
   0567 57                 1276 	LD	D,A
   0568 FA 00 00           1277 	LD	A,(_soundReg)
   056B 5F                 1278 	LD	E,A
   056C 21 11 00           1279 	LD	HL,#17
   056F 19                 1280 	ADD	HL,DE
   0570 54                 1281 	LD	D,H
   0571 5D                 1282 	LD	E,L
   0572 1A                 1283 	LD	A,(DE)
   0573 5F                 1284 	LD	E,A
   0574 CB 3B              1285 	SRL	E
   0576 CB 3B              1286 	SRL	E
   0578 CB 3B              1287 	SRL	E
   057A CB 3B              1288 	SRL	E
ASxxxx Assembler V01.75  (GameBoy Z80-like CPU), page 24.



   057C 3E 0F              1289 	LD	A,#<15
   057E A3                 1290 	AND	E
   057F 5F                 1291 	LD	E,A
   0580 16 00              1292 	LD	D,#0
   0582 C3 A8 06           1293 	JP	.L36
   0585                    1294 .L102:
                           1295 ;	return soundReg->mode4.envMode;
   0585 FA 01 00           1296 	LD	A,(_soundReg+1)
   0588 57                 1297 	LD	D,A
   0589 FA 00 00           1298 	LD	A,(_soundReg)
   058C 5F                 1299 	LD	E,A
   058D 21 11 00           1300 	LD	HL,#17
   0590 19                 1301 	ADD	HL,DE
   0591 54                 1302 	LD	D,H
   0592 5D                 1303 	LD	E,L
   0593 1A                 1304 	LD	A,(DE)
   0594 5F                 1305 	LD	E,A
   0595 CB 3B              1306 	SRL	E
   0597 CB 3B              1307 	SRL	E
   0599 CB 3B              1308 	SRL	E
   059B 3E 01              1309 	LD	A,#<1
   059D A3                 1310 	AND	E
   059E 5F                 1311 	LD	E,A
   059F 16 00              1312 	LD	D,#0
   05A1 C3 A8 06           1313 	JP	.L36
   05A4                    1314 .L103:
                           1315 ;	return soundReg->mode4.envNbStep;
   05A4 FA 01 00           1316 	LD	A,(_soundReg+1)
   05A7 57                 1317 	LD	D,A
   05A8 FA 00 00           1318 	LD	A,(_soundReg)
   05AB 5F                 1319 	LD	E,A
   05AC 21 11 00           1320 	LD	HL,#17
   05AF 19                 1321 	ADD	HL,DE
   05B0 54                 1322 	LD	D,H
   05B1 5D                 1323 	LD	E,L
   05B2 1A                 1324 	LD	A,(DE)
   05B3 5F                 1325 	LD	E,A
   05B4 3E 07              1326 	LD	A,#<7
   05B6 A3                 1327 	AND	E
   05B7 5F                 1328 	LD	E,A
   05B8 16 00              1329 	LD	D,#0
   05BA C3 A8 06           1330 	JP	.L36
   05BD                    1331 .L104:
                           1332 ;	return soundReg->mode4.polyCounterFreq;
   05BD FA 01 00           1333 	LD	A,(_soundReg+1)
   05C0 57                 1334 	LD	D,A
   05C1 FA 00 00           1335 	LD	A,(_soundReg)
   05C4 5F                 1336 	LD	E,A
   05C5 21 12 00           1337 	LD	HL,#18
   05C8 19                 1338 	ADD	HL,DE
   05C9 54                 1339 	LD	D,H
   05CA 5D                 1340 	LD	E,L
   05CB 1A                 1341 	LD	A,(DE)
   05CC 5F                 1342 	LD	E,A
   05CD CB 3B              1343 	SRL	E
   05CF CB 3B              1344 	SRL	E
ASxxxx Assembler V01.75  (GameBoy Z80-like CPU), page 25.



   05D1 CB 3B              1345 	SRL	E
   05D3 CB 3B              1346 	SRL	E
   05D5 3E 0F              1347 	LD	A,#<15
   05D7 A3                 1348 	AND	E
   05D8 5F                 1349 	LD	E,A
   05D9 16 00              1350 	LD	D,#0
   05DB C3 A8 06           1351 	JP	.L36
   05DE                    1352 .L105:
                           1353 ;	return soundReg->mode4.polyCounterStep;
   05DE FA 01 00           1354 	LD	A,(_soundReg+1)
   05E1 57                 1355 	LD	D,A
   05E2 FA 00 00           1356 	LD	A,(_soundReg)
   05E5 5F                 1357 	LD	E,A
   05E6 21 12 00           1358 	LD	HL,#18
   05E9 19                 1359 	ADD	HL,DE
   05EA 54                 1360 	LD	D,H
   05EB 5D                 1361 	LD	E,L
   05EC 1A                 1362 	LD	A,(DE)
   05ED 5F                 1363 	LD	E,A
   05EE CB 3B              1364 	SRL	E
   05F0 CB 3B              1365 	SRL	E
   05F2 CB 3B              1366 	SRL	E
   05F4 3E 01              1367 	LD	A,#<1
   05F6 A3                 1368 	AND	E
   05F7 5F                 1369 	LD	E,A
   05F8 16 00              1370 	LD	D,#0
   05FA C3 A8 06           1371 	JP	.L36
   05FD                    1372 .L106:
                           1373 ;	return soundReg->mode4.polyCounterDiv;
   05FD FA 01 00           1374 	LD	A,(_soundReg+1)
   0600 57                 1375 	LD	D,A
   0601 FA 00 00           1376 	LD	A,(_soundReg)
   0604 5F                 1377 	LD	E,A
   0605 21 12 00           1378 	LD	HL,#18
   0608 19                 1379 	ADD	HL,DE
   0609 54                 1380 	LD	D,H
   060A 5D                 1381 	LD	E,L
   060B 1A                 1382 	LD	A,(DE)
   060C 5F                 1383 	LD	E,A
   060D 3E 07              1384 	LD	A,#<7
   060F A3                 1385 	AND	E
   0610 5F                 1386 	LD	E,A
   0611 16 00              1387 	LD	D,#0
   0613 C3 A8 06           1388 	JP	.L36
   0616                    1389 .L107:
                           1390 ;	return soundReg->mode4.counter_ConsSel;
   0616 FA 01 00           1391 	LD	A,(_soundReg+1)
   0619 57                 1392 	LD	D,A
   061A FA 00 00           1393 	LD	A,(_soundReg)
   061D 5F                 1394 	LD	E,A
   061E 21 13 00           1395 	LD	HL,#19
   0621 19                 1396 	ADD	HL,DE
   0622 54                 1397 	LD	D,H
   0623 5D                 1398 	LD	E,L
   0624 1A                 1399 	LD	A,(DE)
   0625 5F                 1400 	LD	E,A
ASxxxx Assembler V01.75  (GameBoy Z80-like CPU), page 26.



   0626 CB 3B              1401 	SRL	E
   0628 CB 3B              1402 	SRL	E
   062A CB 3B              1403 	SRL	E
   062C CB 3B              1404 	SRL	E
   062E CB 3B              1405 	SRL	E
   0630 CB 3B              1406 	SRL	E
   0632 3E 01              1407 	LD	A,#<1
   0634 A3                 1408 	AND	E
   0635 5F                 1409 	LD	E,A
   0636 16 00              1410 	LD	D,#0
   0638 C3 A8 06           1411 	JP	.L36
   063B                    1412 .L108:
                           1413 ;	return soundReg->control.Sound4_To_SO1;
   063B FA 01 00           1414 	LD	A,(_soundReg+1)
   063E 57                 1415 	LD	D,A
   063F FA 00 00           1416 	LD	A,(_soundReg)
   0642 5F                 1417 	LD	E,A
   0643 21 15 00           1418 	LD	HL,#21
   0646 19                 1419 	ADD	HL,DE
   0647 54                 1420 	LD	D,H
   0648 5D                 1421 	LD	E,L
   0649 1A                 1422 	LD	A,(DE)
   064A 5F                 1423 	LD	E,A
   064B CB 3B              1424 	SRL	E
   064D CB 3B              1425 	SRL	E
   064F CB 3B              1426 	SRL	E
   0651 3E 01              1427 	LD	A,#<1
   0653 A3                 1428 	AND	E
   0654 5F                 1429 	LD	E,A
   0655 16 00              1430 	LD	D,#0
   0657 C3 A8 06           1431 	JP	.L36
   065A                    1432 .L109:
                           1433 ;	return soundReg->control.Sound4_To_SO2;
   065A FA 01 00           1434 	LD	A,(_soundReg+1)
   065D 57                 1435 	LD	D,A
   065E FA 00 00           1436 	LD	A,(_soundReg)
   0661 5F                 1437 	LD	E,A
   0662 21 15 00           1438 	LD	HL,#21
   0665 19                 1439 	ADD	HL,DE
   0666 54                 1440 	LD	D,H
   0667 5D                 1441 	LD	E,L
   0668 1A                 1442 	LD	A,(DE)
   0669 5F                 1443 	LD	E,A
   066A CB 3B              1444 	SRL	E
   066C CB 3B              1445 	SRL	E
   066E CB 3B              1446 	SRL	E
   0670 CB 3B              1447 	SRL	E
   0672 CB 3B              1448 	SRL	E
   0674 CB 3B              1449 	SRL	E
   0676 CB 3B              1450 	SRL	E
   0678 3E 01              1451 	LD	A,#<1
   067A A3                 1452 	AND	E
   067B 5F                 1453 	LD	E,A
   067C 16 00              1454 	LD	D,#0
   067E C3 A8 06           1455 	JP	.L36
   0681                    1456 .L110:
ASxxxx Assembler V01.75  (GameBoy Z80-like CPU), page 27.



                           1457 ;	return soundReg->control.Sound4_On_Off;
   0681 FA 01 00           1458 	LD	A,(_soundReg+1)
   0684 57                 1459 	LD	D,A
   0685 FA 00 00           1460 	LD	A,(_soundReg)
   0688 5F                 1461 	LD	E,A
   0689 21 16 00           1462 	LD	HL,#22
   068C 19                 1463 	ADD	HL,DE
   068D 54                 1464 	LD	D,H
   068E 5D                 1465 	LD	E,L
   068F 1A                 1466 	LD	A,(DE)
   0690 5F                 1467 	LD	E,A
   0691 CB 3B              1468 	SRL	E
   0693 CB 3B              1469 	SRL	E
   0695 CB 3B              1470 	SRL	E
   0697 3E 01              1471 	LD	A,#<1
   0699 A3                 1472 	AND	E
   069A 5F                 1473 	LD	E,A
   069B 16 00              1474 	LD	D,#0
   069D C3 A8 06           1475 	JP	.L36
   06A0                    1476 .L98:
                           1477 ;  }
   06A0                    1478 .L96:
   06A0                    1479 .L83:
   06A0                    1480 .L67:
   06A0                    1481 .L48:
   06A0                    1482 .L38:
                           1483 ;  return 0;
   06A0 FA F4 00           1484 	LD	A,(.L112+1)
   06A3 57                 1485 	LD	D,A
   06A4 FA F3 00           1486 	LD	A,(.L112)
   06A7 5F                 1487 	LD	E,A
   06A8                    1488 .L36:
   06A8 C1                 1489 	POP	BC
   06A9 C9                 1490 	RET
   06AA                    1491 _end_current_value:
                           1492 	.globl	_update_value
   06AA                    1493 _start_update_value:
   06AA                    1494 _update_value:
                           1495 ;{
                           1496 ;  if(mode == 0) {
                           1497 ;    switch(line)
   06AA E8 E4              1498 	LDA	SP,-28(SP)
   06AC C5                 1499 	PUSH	BC
   06AD F8 20              1500 	LDA	HL,32(SP)
   06AF 3E 00              1501 	LD	A,#<0
   06B1 BE                 1502 	CP	(HL)
   06B2 C2 78 0A           1503 	JP	NZ,.L119
   06B5 F8 21              1504 	LDA	HL,33(SP)
   06B7 5E                 1505 	LD	E,(HL)
   06B8 7B                 1506 	LD	A,E
   06B9 C6 80              1507 	ADD	#0x80
   06BB FE 84              1508 	CP	#<132
   06BD 28 03              1509 	JR	Z,.L202
   06BF D2 D4 06           1510 	JP	NC,.L130
   06C2                    1511 .L202:
   06C2 7B                 1512 	LD	A,E
ASxxxx Assembler V01.75  (GameBoy Z80-like CPU), page 28.



   06C3 07                 1513 	RLCA
   06C4 9F                 1514 	SBC	A
   06C5 57                 1515 	LD	D,A
   06C6 CB 23              1516 	SLA	E
   06C8 CB 12              1517 	RL	D
   06CA 21 5E 00           1518 	LD	HL,#.L131
   06CD 19                 1519 	ADD	HL,DE
   06CE 54                 1520 	LD	D,H
   06CF 5D                 1521 	LD	E,L
   06D0 2A                 1522 	LD	A,(HL+)
   06D1 66                 1523 	LD	H,(HL)
   06D2 6F                 1524 	LD	L,A
   06D3 E9                 1525 	JP	(HL)
                           1526 	;; _CODE ends
                           1527 	.area	_LIT
   005E                    1528 .L131:
   005E E6 06              1529 	.dw	.L123
   0060 38 07              1530 	.dw	.L124
   0062 82 07              1531 	.dw	.L125
   0064 D4 07              1532 	.dw	.L126
   0066 18 08              1533 	.dw	.L127
                           1534 	;; _LIT ends
                           1535 	.area	_CODE
   06D4                    1536 .L130:
                           1537 ;      {
   06D4 F8 21              1538 	LDA	HL,33(SP)
   06D6 5E                 1539 	LD	E,(HL)
   06D7 7B                 1540 	LD	A,E
   06D8 FE 20              1541 	CP	#<32
   06DA CA A0 08           1542 	JP	Z,.L129
   06DD 7B                 1543 	LD	A,E
   06DE FE 21              1544 	CP	#<33
   06E0 CA 64 08           1545 	JP	Z,.L128
   06E3 C3 60 19           1546 	JP	.L120
   06E6                    1547 .L123:
                           1548 ;	soundReg->control.global_On_Off = value;
                           1549 ;	NR52_REG = ((UBYTE *)soundReg)[0x16];
                           1550 ;	break;
   06E6 FA 01 00           1551 	LD	A,(_soundReg+1)
   06E9 57                 1552 	LD	D,A
   06EA FA 00 00           1553 	LD	A,(_soundReg)
   06ED 5F                 1554 	LD	E,A
   06EE 21 16 00           1555 	LD	HL,#22
   06F1 19                 1556 	ADD	HL,DE
   06F2 54                 1557 	LD	D,H
   06F3 5D                 1558 	LD	E,L
   06F4 F8 1C              1559 	LDA	HL,28(SP)
   06F6 7B                 1560 	LD	A,E
   06F7 22                 1561 	LD	(HL+),A
   06F8 72                 1562 	LD	(HL),D
   06F9 1A                 1563 	LD	A,(DE)
   06FA 4F                 1564 	LD	C,A
   06FB 3E 7F              1565 	LD	A,#<127
   06FD A1                 1566 	AND	C
   06FE 4F                 1567 	LD	C,A
   06FF F8 22              1568 	LDA	HL,34(SP)
ASxxxx Assembler V01.75  (GameBoy Z80-like CPU), page 29.



   0701 2A                 1569 	LD	A,(HL+)
   0702 56                 1570 	LD	D,(HL)
   0703 5F                 1571 	LD	E,A
   0704 3E 01              1572 	LD	A,#<1
   0706 A3                 1573 	AND	E
   0707 5F                 1574 	LD	E,A
   0708 CB 23              1575 	SLA	E
   070A CB 23              1576 	SLA	E
   070C CB 23              1577 	SLA	E
   070E CB 23              1578 	SLA	E
   0710 CB 23              1579 	SLA	E
   0712 CB 23              1580 	SLA	E
   0714 CB 23              1581 	SLA	E
   0716 3E 80              1582 	LD	A,#<128
   0718 A3                 1583 	AND	E
   0719 5F                 1584 	LD	E,A
   071A B1                 1585 	OR	C
   071B 5F                 1586 	LD	E,A
   071C F8 1C              1587 	LDA	HL,28(SP)
   071E 2A                 1588 	LD	A,(HL+)
   071F 46                 1589 	LD	B,(HL)
   0720 4F                 1590 	LD	C,A
   0721 7B                 1591 	LD	A,E
   0722 02                 1592 	LD	(BC),A
   0723 FA 01 00           1593 	LD	A,(_soundReg+1)
   0726 57                 1594 	LD	D,A
   0727 FA 00 00           1595 	LD	A,(_soundReg)
   072A 5F                 1596 	LD	E,A
   072B 21 16 00           1597 	LD	HL,#22
   072E 19                 1598 	ADD	HL,DE
   072F 54                 1599 	LD	D,H
   0730 5D                 1600 	LD	E,L
   0731 1A                 1601 	LD	A,(DE)
   0732 5F                 1602 	LD	E,A
   0733 E0 26              1603 	LDH	(0x26),A
   0735 C3 60 19           1604 	JP	.L120
   0738                    1605 .L124:
                           1606 ;	soundReg->control.Vin_SO1 = value;
                           1607 ;	NR50_REG = ((UBYTE *)soundReg)[0x14];
                           1608 ;	break;
   0738 FA 01 00           1609 	LD	A,(_soundReg+1)
   073B 57                 1610 	LD	D,A
   073C FA 00 00           1611 	LD	A,(_soundReg)
   073F 5F                 1612 	LD	E,A
   0740 21 14 00           1613 	LD	HL,#20
   0743 19                 1614 	ADD	HL,DE
   0744 54                 1615 	LD	D,H
   0745 5D                 1616 	LD	E,L
   0746 F8 1A              1617 	LDA	HL,26(SP)
   0748 7B                 1618 	LD	A,E
   0749 22                 1619 	LD	(HL+),A
   074A 72                 1620 	LD	(HL),D
   074B 1A                 1621 	LD	A,(DE)
   074C 4F                 1622 	LD	C,A
   074D 3E F7              1623 	LD	A,#<247
   074F A1                 1624 	AND	C
ASxxxx Assembler V01.75  (GameBoy Z80-like CPU), page 30.



   0750 4F                 1625 	LD	C,A
   0751 F8 22              1626 	LDA	HL,34(SP)
   0753 2A                 1627 	LD	A,(HL+)
   0754 56                 1628 	LD	D,(HL)
   0755 5F                 1629 	LD	E,A
   0756 3E 01              1630 	LD	A,#<1
   0758 A3                 1631 	AND	E
   0759 5F                 1632 	LD	E,A
   075A CB 23              1633 	SLA	E
   075C CB 23              1634 	SLA	E
   075E CB 23              1635 	SLA	E
   0760 3E 08              1636 	LD	A,#<8
   0762 A3                 1637 	AND	E
   0763 5F                 1638 	LD	E,A
   0764 B1                 1639 	OR	C
   0765 5F                 1640 	LD	E,A
   0766 F8 1A              1641 	LDA	HL,26(SP)
   0768 2A                 1642 	LD	A,(HL+)
   0769 46                 1643 	LD	B,(HL)
   076A 4F                 1644 	LD	C,A
   076B 7B                 1645 	LD	A,E
   076C 02                 1646 	LD	(BC),A
   076D FA 01 00           1647 	LD	A,(_soundReg+1)
   0770 57                 1648 	LD	D,A
   0771 FA 00 00           1649 	LD	A,(_soundReg)
   0774 5F                 1650 	LD	E,A
   0775 21 14 00           1651 	LD	HL,#20
   0778 19                 1652 	ADD	HL,DE
   0779 54                 1653 	LD	D,H
   077A 5D                 1654 	LD	E,L
   077B 1A                 1655 	LD	A,(DE)
   077C 5F                 1656 	LD	E,A
   077D E0 24              1657 	LDH	(0x24),A
   077F C3 60 19           1658 	JP	.L120
   0782                    1659 .L125:
                           1660 ;	soundReg->control.Vin_SO2 = value;
                           1661 ;	NR50_REG = ((UBYTE *)soundReg)[0x14];
                           1662 ;	break;
   0782 FA 01 00           1663 	LD	A,(_soundReg+1)
   0785 57                 1664 	LD	D,A
   0786 FA 00 00           1665 	LD	A,(_soundReg)
   0789 5F                 1666 	LD	E,A
   078A 21 14 00           1667 	LD	HL,#20
   078D 19                 1668 	ADD	HL,DE
   078E 54                 1669 	LD	D,H
   078F 5D                 1670 	LD	E,L
   0790 F8 18              1671 	LDA	HL,24(SP)
   0792 7B                 1672 	LD	A,E
   0793 22                 1673 	LD	(HL+),A
   0794 72                 1674 	LD	(HL),D
   0795 1A                 1675 	LD	A,(DE)
   0796 4F                 1676 	LD	C,A
   0797 3E 7F              1677 	LD	A,#<127
   0799 A1                 1678 	AND	C
   079A 4F                 1679 	LD	C,A
   079B F8 22              1680 	LDA	HL,34(SP)
ASxxxx Assembler V01.75  (GameBoy Z80-like CPU), page 31.



   079D 2A                 1681 	LD	A,(HL+)
   079E 56                 1682 	LD	D,(HL)
   079F 5F                 1683 	LD	E,A
   07A0 3E 01              1684 	LD	A,#<1
   07A2 A3                 1685 	AND	E
   07A3 5F                 1686 	LD	E,A
   07A4 CB 23              1687 	SLA	E
   07A6 CB 23              1688 	SLA	E
   07A8 CB 23              1689 	SLA	E
   07AA CB 23              1690 	SLA	E
   07AC CB 23              1691 	SLA	E
   07AE CB 23              1692 	SLA	E
   07B0 CB 23              1693 	SLA	E
   07B2 3E 80              1694 	LD	A,#<128
   07B4 A3                 1695 	AND	E
   07B5 5F                 1696 	LD	E,A
   07B6 B1                 1697 	OR	C
   07B7 5F                 1698 	LD	E,A
   07B8 F8 18              1699 	LDA	HL,24(SP)
   07BA 2A                 1700 	LD	A,(HL+)
   07BB 46                 1701 	LD	B,(HL)
   07BC 4F                 1702 	LD	C,A
   07BD 7B                 1703 	LD	A,E
   07BE 02                 1704 	LD	(BC),A
   07BF FA 01 00           1705 	LD	A,(_soundReg+1)
   07C2 57                 1706 	LD	D,A
   07C3 FA 00 00           1707 	LD	A,(_soundReg)
   07C6 5F                 1708 	LD	E,A
   07C7 21 14 00           1709 	LD	HL,#20
   07CA 19                 1710 	ADD	HL,DE
   07CB 54                 1711 	LD	D,H
   07CC 5D                 1712 	LD	E,L
   07CD 1A                 1713 	LD	A,(DE)
   07CE 5F                 1714 	LD	E,A
   07CF E0 24              1715 	LDH	(0x24),A
   07D1 C3 60 19           1716 	JP	.L120
   07D4                    1717 .L126:
                           1718 ;	soundReg->control.SO1_OutputLevel = value;
                           1719 ;	NR50_REG = ((UBYTE *)soundReg)[0x14];
                           1720 ;	break;
   07D4 FA 01 00           1721 	LD	A,(_soundReg+1)
   07D7 57                 1722 	LD	D,A
   07D8 FA 00 00           1723 	LD	A,(_soundReg)
   07DB 5F                 1724 	LD	E,A
   07DC 21 14 00           1725 	LD	HL,#20
   07DF 19                 1726 	ADD	HL,DE
   07E0 54                 1727 	LD	D,H
   07E1 5D                 1728 	LD	E,L
   07E2 F8 16              1729 	LDA	HL,22(SP)
   07E4 7B                 1730 	LD	A,E
   07E5 22                 1731 	LD	(HL+),A
   07E6 72                 1732 	LD	(HL),D
   07E7 1A                 1733 	LD	A,(DE)
   07E8 4F                 1734 	LD	C,A
   07E9 3E F8              1735 	LD	A,#<248
   07EB A1                 1736 	AND	C
ASxxxx Assembler V01.75  (GameBoy Z80-like CPU), page 32.



   07EC 4F                 1737 	LD	C,A
   07ED F8 22              1738 	LDA	HL,34(SP)
   07EF 2A                 1739 	LD	A,(HL+)
   07F0 56                 1740 	LD	D,(HL)
   07F1 5F                 1741 	LD	E,A
   07F2 3E 07              1742 	LD	A,#<7
   07F4 A3                 1743 	AND	E
   07F5 5F                 1744 	LD	E,A
   07F6 3E 07              1745 	LD	A,#<7
   07F8 A3                 1746 	AND	E
   07F9 5F                 1747 	LD	E,A
   07FA B1                 1748 	OR	C
   07FB 5F                 1749 	LD	E,A
   07FC F8 16              1750 	LDA	HL,22(SP)
   07FE 2A                 1751 	LD	A,(HL+)
   07FF 46                 1752 	LD	B,(HL)
   0800 4F                 1753 	LD	C,A
   0801 7B                 1754 	LD	A,E
   0802 02                 1755 	LD	(BC),A
   0803 FA 01 00           1756 	LD	A,(_soundReg+1)
   0806 57                 1757 	LD	D,A
   0807 FA 00 00           1758 	LD	A,(_soundReg)
   080A 5F                 1759 	LD	E,A
   080B 21 14 00           1760 	LD	HL,#20
   080E 19                 1761 	ADD	HL,DE
   080F 54                 1762 	LD	D,H
   0810 5D                 1763 	LD	E,L
   0811 1A                 1764 	LD	A,(DE)
   0812 5F                 1765 	LD	E,A
   0813 E0 24              1766 	LDH	(0x24),A
   0815 C3 60 19           1767 	JP	.L120
   0818                    1768 .L127:
                           1769 ;	soundReg->control.SO2_OutputLevel = value;
                           1770 ;	NR50_REG = ((UBYTE *)soundReg)[0x14];
                           1771 ;	break;
   0818 FA 01 00           1772 	LD	A,(_soundReg+1)
   081B 57                 1773 	LD	D,A
   081C FA 00 00           1774 	LD	A,(_soundReg)
   081F 5F                 1775 	LD	E,A
   0820 21 14 00           1776 	LD	HL,#20
   0823 19                 1777 	ADD	HL,DE
   0824 54                 1778 	LD	D,H
   0825 5D                 1779 	LD	E,L
   0826 F8 14              1780 	LDA	HL,20(SP)
   0828 7B                 1781 	LD	A,E
   0829 22                 1782 	LD	(HL+),A
   082A 72                 1783 	LD	(HL),D
   082B 1A                 1784 	LD	A,(DE)
   082C 4F                 1785 	LD	C,A
   082D 3E 8F              1786 	LD	A,#<143
   082F A1                 1787 	AND	C
   0830 4F                 1788 	LD	C,A
   0831 F8 22              1789 	LDA	HL,34(SP)
   0833 2A                 1790 	LD	A,(HL+)
   0834 56                 1791 	LD	D,(HL)
   0835 5F                 1792 	LD	E,A
ASxxxx Assembler V01.75  (GameBoy Z80-like CPU), page 33.



   0836 3E 07              1793 	LD	A,#<7
   0838 A3                 1794 	AND	E
   0839 5F                 1795 	LD	E,A
   083A CB 23              1796 	SLA	E
   083C CB 23              1797 	SLA	E
   083E CB 23              1798 	SLA	E
   0840 CB 23              1799 	SLA	E
   0842 3E 70              1800 	LD	A,#<112
   0844 A3                 1801 	AND	E
   0845 5F                 1802 	LD	E,A
   0846 B1                 1803 	OR	C
   0847 5F                 1804 	LD	E,A
   0848 F8 14              1805 	LDA	HL,20(SP)
   084A 2A                 1806 	LD	A,(HL+)
   084B 46                 1807 	LD	B,(HL)
   084C 4F                 1808 	LD	C,A
   084D 7B                 1809 	LD	A,E
   084E 02                 1810 	LD	(BC),A
   084F FA 01 00           1811 	LD	A,(_soundReg+1)
   0852 57                 1812 	LD	D,A
   0853 FA 00 00           1813 	LD	A,(_soundReg)
   0856 5F                 1814 	LD	E,A
   0857 21 14 00           1815 	LD	HL,#20
   085A 19                 1816 	ADD	HL,DE
   085B 54                 1817 	LD	D,H
   085C 5D                 1818 	LD	E,L
   085D 1A                 1819 	LD	A,(DE)
   085E 5F                 1820 	LD	E,A
   085F E0 24              1821 	LDH	(0x24),A
   0861 C3 60 19           1822 	JP	.L120
   0864                    1823 .L128:
                           1824 ;	update_value(1, FREQUENCY, value);
                           1825 ;	update_value(2, FREQUENCY, value);
                           1826 ;	update_value(3, FREQUENCY, value);
                           1827 ;	break;
   0864 F8 22              1828 	LDA	HL,34(SP)
   0866 2A                 1829 	LD	A,(HL+)
   0867 56                 1830 	LD	D,(HL)
   0868 5F                 1831 	LD	E,A
   0869 D5                 1832 	PUSH	DE
   086A 3E 21              1833 	LD	A,#<33
   086C F5                 1834 	PUSH	AF
   086D 33                 1835 	INC	SP
   086E 3E 01              1836 	LD	A,#<1
   0870 F5                 1837 	PUSH	AF
   0871 33                 1838 	INC	SP
   0872 CD AA 06           1839 	CALL	_update_value
   0875 E8 04              1840 	LDA	SP,4(SP)
   0877 F8 22              1841 	LDA	HL,34(SP)
   0879 2A                 1842 	LD	A,(HL+)
   087A 56                 1843 	LD	D,(HL)
   087B 5F                 1844 	LD	E,A
   087C D5                 1845 	PUSH	DE
   087D 3E 21              1846 	LD	A,#<33
   087F F5                 1847 	PUSH	AF
   0880 33                 1848 	INC	SP
ASxxxx Assembler V01.75  (GameBoy Z80-like CPU), page 34.



   0881 3E 02              1849 	LD	A,#<2
   0883 F5                 1850 	PUSH	AF
   0884 33                 1851 	INC	SP
   0885 CD AA 06           1852 	CALL	_update_value
   0888 E8 04              1853 	LDA	SP,4(SP)
   088A F8 22              1854 	LDA	HL,34(SP)
   088C 2A                 1855 	LD	A,(HL+)
   088D 56                 1856 	LD	D,(HL)
   088E 5F                 1857 	LD	E,A
   088F D5                 1858 	PUSH	DE
   0890 3E 21              1859 	LD	A,#<33
   0892 F5                 1860 	PUSH	AF
   0893 33                 1861 	INC	SP
   0894 3E 03              1862 	LD	A,#<3
   0896 F5                 1863 	PUSH	AF
   0897 33                 1864 	INC	SP
   0898 CD AA 06           1865 	CALL	_update_value
   089B E8 04              1866 	LDA	SP,4(SP)
   089D C3 60 19           1867 	JP	.L120
   08A0                    1868 .L129:
                           1869 ;	update_value(1, FREQUENCY, current_value(1, FREQUENCY));
                           1870 ;	update_value(2, FREQUENCY, current_value(2, FREQUENCY));
                           1871 ;	update_value(3, FREQUENCY, current_value(3, FREQUENCY));
                           1872 ;	soundReg->mode1.restart = value;
                           1873 ;	soundReg->mode2.restart = value;
                           1874 ;	soundReg->mode3.restart = value;
                           1875 ;	soundReg->mode4.restart = value;
                           1876 ;	NR14_REG = ((UBYTE *)soundReg)[0x04];
                           1877 ;	NR24_REG = ((UBYTE *)soundReg)[0x09];
                           1878 ;	NR34_REG = ((UBYTE *)soundReg)[0x0E];
                           1879 ;	NR44_REG = ((UBYTE *)soundReg)[0x13];
                           1880 ;	soundReg->mode1.restart = 0;
                           1881 ;	soundReg->mode2.restart = 0;
                           1882 ;	soundReg->mode3.restart = 0;
                           1883 ;	soundReg->mode4.restart = 0;
                           1884 ;	break;
                           1885 ;  } else if(mode == 1) {
   08A0 3E 21              1886 	LD	A,#<33
   08A2 F5                 1887 	PUSH	AF
   08A3 33                 1888 	INC	SP
   08A4 3E 01              1889 	LD	A,#<1
   08A6 F5                 1890 	PUSH	AF
   08A7 33                 1891 	INC	SP
   08A8 CD 00 00           1892 	CALL	_current_value
   08AB E8 02              1893 	LDA	SP,2(SP)
   08AD D5                 1894 	PUSH	DE
   08AE 3E 21              1895 	LD	A,#<33
   08B0 F5                 1896 	PUSH	AF
   08B1 33                 1897 	INC	SP
   08B2 3E 01              1898 	LD	A,#<1
   08B4 F5                 1899 	PUSH	AF
   08B5 33                 1900 	INC	SP
   08B6 CD AA 06           1901 	CALL	_update_value
   08B9 E8 04              1902 	LDA	SP,4(SP)
   08BB 3E 21              1903 	LD	A,#<33
   08BD F5                 1904 	PUSH	AF
ASxxxx Assembler V01.75  (GameBoy Z80-like CPU), page 35.



   08BE 33                 1905 	INC	SP
   08BF 3E 02              1906 	LD	A,#<2
   08C1 F5                 1907 	PUSH	AF
   08C2 33                 1908 	INC	SP
   08C3 CD 00 00           1909 	CALL	_current_value
   08C6 E8 02              1910 	LDA	SP,2(SP)
   08C8 D5                 1911 	PUSH	DE
   08C9 3E 21              1912 	LD	A,#<33
   08CB F5                 1913 	PUSH	AF
   08CC 33                 1914 	INC	SP
   08CD 3E 02              1915 	LD	A,#<2
   08CF F5                 1916 	PUSH	AF
   08D0 33                 1917 	INC	SP
   08D1 CD AA 06           1918 	CALL	_update_value
   08D4 E8 04              1919 	LDA	SP,4(SP)
   08D6 3E 21              1920 	LD	A,#<33
   08D8 F5                 1921 	PUSH	AF
   08D9 33                 1922 	INC	SP
   08DA 3E 03              1923 	LD	A,#<3
   08DC F5                 1924 	PUSH	AF
   08DD 33                 1925 	INC	SP
   08DE CD 00 00           1926 	CALL	_current_value
   08E1 E8 02              1927 	LDA	SP,2(SP)
   08E3 D5                 1928 	PUSH	DE
   08E4 3E 21              1929 	LD	A,#<33
   08E6 F5                 1930 	PUSH	AF
   08E7 33                 1931 	INC	SP
   08E8 3E 03              1932 	LD	A,#<3
   08EA F5                 1933 	PUSH	AF
   08EB 33                 1934 	INC	SP
   08EC CD AA 06           1935 	CALL	_update_value
   08EF E8 04              1936 	LDA	SP,4(SP)
   08F1 FA 01 00           1937 	LD	A,(_soundReg+1)
   08F4 57                 1938 	LD	D,A
   08F5 FA 00 00           1939 	LD	A,(_soundReg)
   08F8 5F                 1940 	LD	E,A
   08F9 21 04 00           1941 	LD	HL,#4
   08FC 19                 1942 	ADD	HL,DE
   08FD 54                 1943 	LD	D,H
   08FE 5D                 1944 	LD	E,L
   08FF F8 12              1945 	LDA	HL,18(SP)
   0901 7B                 1946 	LD	A,E
   0902 22                 1947 	LD	(HL+),A
   0903 72                 1948 	LD	(HL),D
   0904 1A                 1949 	LD	A,(DE)
   0905 4F                 1950 	LD	C,A
   0906 3E 7F              1951 	LD	A,#<127
   0908 A1                 1952 	AND	C
   0909 4F                 1953 	LD	C,A
   090A F8 22              1954 	LDA	HL,34(SP)
   090C 2A                 1955 	LD	A,(HL+)
   090D 56                 1956 	LD	D,(HL)
   090E 5F                 1957 	LD	E,A
   090F 3E 01              1958 	LD	A,#<1
   0911 A3                 1959 	AND	E
   0912 5F                 1960 	LD	E,A
ASxxxx Assembler V01.75  (GameBoy Z80-like CPU), page 36.



   0913 CB 23              1961 	SLA	E
   0915 CB 23              1962 	SLA	E
   0917 CB 23              1963 	SLA	E
   0919 CB 23              1964 	SLA	E
   091B CB 23              1965 	SLA	E
   091D CB 23              1966 	SLA	E
   091F CB 23              1967 	SLA	E
   0921 3E 80              1968 	LD	A,#<128
   0923 A3                 1969 	AND	E
   0924 5F                 1970 	LD	E,A
   0925 B1                 1971 	OR	C
   0926 5F                 1972 	LD	E,A
   0927 F8 12              1973 	LDA	HL,18(SP)
   0929 2A                 1974 	LD	A,(HL+)
   092A 46                 1975 	LD	B,(HL)
   092B 4F                 1976 	LD	C,A
   092C 7B                 1977 	LD	A,E
   092D 02                 1978 	LD	(BC),A
   092E FA 01 00           1979 	LD	A,(_soundReg+1)
   0931 57                 1980 	LD	D,A
   0932 FA 00 00           1981 	LD	A,(_soundReg)
   0935 5F                 1982 	LD	E,A
   0936 21 09 00           1983 	LD	HL,#9
   0939 19                 1984 	ADD	HL,DE
   093A 54                 1985 	LD	D,H
   093B 5D                 1986 	LD	E,L
   093C F8 10              1987 	LDA	HL,16(SP)
   093E 7B                 1988 	LD	A,E
   093F 22                 1989 	LD	(HL+),A
   0940 72                 1990 	LD	(HL),D
   0941 1A                 1991 	LD	A,(DE)
   0942 4F                 1992 	LD	C,A
   0943 3E 7F              1993 	LD	A,#<127
   0945 A1                 1994 	AND	C
   0946 4F                 1995 	LD	C,A
   0947 F8 22              1996 	LDA	HL,34(SP)
   0949 2A                 1997 	LD	A,(HL+)
   094A 56                 1998 	LD	D,(HL)
   094B 5F                 1999 	LD	E,A
   094C 3E 01              2000 	LD	A,#<1
   094E A3                 2001 	AND	E
   094F 5F                 2002 	LD	E,A
   0950 CB 23              2003 	SLA	E
   0952 CB 23              2004 	SLA	E
   0954 CB 23              2005 	SLA	E
   0956 CB 23              2006 	SLA	E
   0958 CB 23              2007 	SLA	E
   095A CB 23              2008 	SLA	E
   095C CB 23              2009 	SLA	E
   095E 3E 80              2010 	LD	A,#<128
   0960 A3                 2011 	AND	E
   0961 5F                 2012 	LD	E,A
   0962 B1                 2013 	OR	C
   0963 5F                 2014 	LD	E,A
   0964 F8 10              2015 	LDA	HL,16(SP)
   0966 2A                 2016 	LD	A,(HL+)
ASxxxx Assembler V01.75  (GameBoy Z80-like CPU), page 37.



   0967 46                 2017 	LD	B,(HL)
   0968 4F                 2018 	LD	C,A
   0969 7B                 2019 	LD	A,E
   096A 02                 2020 	LD	(BC),A
   096B FA 01 00           2021 	LD	A,(_soundReg+1)
   096E 57                 2022 	LD	D,A
   096F FA 00 00           2023 	LD	A,(_soundReg)
   0972 5F                 2024 	LD	E,A
   0973 21 0E 00           2025 	LD	HL,#14
   0976 19                 2026 	ADD	HL,DE
   0977 54                 2027 	LD	D,H
   0978 5D                 2028 	LD	E,L
   0979 F8 0E              2029 	LDA	HL,14(SP)
   097B 7B                 2030 	LD	A,E
   097C 22                 2031 	LD	(HL+),A
   097D 72                 2032 	LD	(HL),D
   097E 1A                 2033 	LD	A,(DE)
   097F 4F                 2034 	LD	C,A
   0980 3E 7F              2035 	LD	A,#<127
   0982 A1                 2036 	AND	C
   0983 4F                 2037 	LD	C,A
   0984 F8 22              2038 	LDA	HL,34(SP)
   0986 2A                 2039 	LD	A,(HL+)
   0987 56                 2040 	LD	D,(HL)
   0988 5F                 2041 	LD	E,A
   0989 3E 01              2042 	LD	A,#<1
   098B A3                 2043 	AND	E
   098C 5F                 2044 	LD	E,A
   098D CB 23              2045 	SLA	E
   098F CB 23              2046 	SLA	E
   0991 CB 23              2047 	SLA	E
   0993 CB 23              2048 	SLA	E
   0995 CB 23              2049 	SLA	E
   0997 CB 23              2050 	SLA	E
   0999 CB 23              2051 	SLA	E
   099B 3E 80              2052 	LD	A,#<128
   099D A3                 2053 	AND	E
   099E 5F                 2054 	LD	E,A
   099F B1                 2055 	OR	C
   09A0 5F                 2056 	LD	E,A
   09A1 F8 0E              2057 	LDA	HL,14(SP)
   09A3 2A                 2058 	LD	A,(HL+)
   09A4 46                 2059 	LD	B,(HL)
   09A5 4F                 2060 	LD	C,A
   09A6 7B                 2061 	LD	A,E
   09A7 02                 2062 	LD	(BC),A
   09A8 FA 01 00           2063 	LD	A,(_soundReg+1)
   09AB 57                 2064 	LD	D,A
   09AC FA 00 00           2065 	LD	A,(_soundReg)
   09AF 5F                 2066 	LD	E,A
   09B0 21 13 00           2067 	LD	HL,#19
   09B3 19                 2068 	ADD	HL,DE
   09B4 54                 2069 	LD	D,H
   09B5 5D                 2070 	LD	E,L
   09B6 F8 0C              2071 	LDA	HL,12(SP)
   09B8 7B                 2072 	LD	A,E
ASxxxx Assembler V01.75  (GameBoy Z80-like CPU), page 38.



   09B9 22                 2073 	LD	(HL+),A
   09BA 72                 2074 	LD	(HL),D
   09BB 1A                 2075 	LD	A,(DE)
   09BC 4F                 2076 	LD	C,A
   09BD 3E 7F              2077 	LD	A,#<127
   09BF A1                 2078 	AND	C
   09C0 4F                 2079 	LD	C,A
   09C1 F8 22              2080 	LDA	HL,34(SP)
   09C3 2A                 2081 	LD	A,(HL+)
   09C4 56                 2082 	LD	D,(HL)
   09C5 5F                 2083 	LD	E,A
   09C6 3E 01              2084 	LD	A,#<1
   09C8 A3                 2085 	AND	E
   09C9 5F                 2086 	LD	E,A
   09CA CB 23              2087 	SLA	E
   09CC CB 23              2088 	SLA	E
   09CE CB 23              2089 	SLA	E
   09D0 CB 23              2090 	SLA	E
   09D2 CB 23              2091 	SLA	E
   09D4 CB 23              2092 	SLA	E
   09D6 CB 23              2093 	SLA	E
   09D8 3E 80              2094 	LD	A,#<128
   09DA A3                 2095 	AND	E
   09DB 5F                 2096 	LD	E,A
   09DC B1                 2097 	OR	C
   09DD 5F                 2098 	LD	E,A
   09DE F8 0C              2099 	LDA	HL,12(SP)
   09E0 2A                 2100 	LD	A,(HL+)
   09E1 46                 2101 	LD	B,(HL)
   09E2 4F                 2102 	LD	C,A
   09E3 7B                 2103 	LD	A,E
   09E4 02                 2104 	LD	(BC),A
   09E5 FA 01 00           2105 	LD	A,(_soundReg+1)
   09E8 57                 2106 	LD	D,A
   09E9 FA 00 00           2107 	LD	A,(_soundReg)
   09EC 5F                 2108 	LD	E,A
   09ED 21 04 00           2109 	LD	HL,#4
   09F0 19                 2110 	ADD	HL,DE
   09F1 54                 2111 	LD	D,H
   09F2 5D                 2112 	LD	E,L
   09F3 1A                 2113 	LD	A,(DE)
   09F4 5F                 2114 	LD	E,A
   09F5 E0 14              2115 	LDH	(0x14),A
   09F7 FA 01 00           2116 	LD	A,(_soundReg+1)
   09FA 57                 2117 	LD	D,A
   09FB FA 00 00           2118 	LD	A,(_soundReg)
   09FE 5F                 2119 	LD	E,A
   09FF 21 09 00           2120 	LD	HL,#9
   0A02 19                 2121 	ADD	HL,DE
   0A03 54                 2122 	LD	D,H
   0A04 5D                 2123 	LD	E,L
   0A05 1A                 2124 	LD	A,(DE)
   0A06 5F                 2125 	LD	E,A
   0A07 E0 19              2126 	LDH	(0x19),A
   0A09 FA 01 00           2127 	LD	A,(_soundReg+1)
   0A0C 57                 2128 	LD	D,A
ASxxxx Assembler V01.75  (GameBoy Z80-like CPU), page 39.



   0A0D FA 00 00           2129 	LD	A,(_soundReg)
   0A10 5F                 2130 	LD	E,A
   0A11 21 0E 00           2131 	LD	HL,#14
   0A14 19                 2132 	ADD	HL,DE
   0A15 54                 2133 	LD	D,H
   0A16 5D                 2134 	LD	E,L
   0A17 1A                 2135 	LD	A,(DE)
   0A18 5F                 2136 	LD	E,A
   0A19 E0 1E              2137 	LDH	(0x1E),A
   0A1B FA 01 00           2138 	LD	A,(_soundReg+1)
   0A1E 57                 2139 	LD	D,A
   0A1F FA 00 00           2140 	LD	A,(_soundReg)
   0A22 5F                 2141 	LD	E,A
   0A23 21 13 00           2142 	LD	HL,#19
   0A26 19                 2143 	ADD	HL,DE
   0A27 54                 2144 	LD	D,H
   0A28 5D                 2145 	LD	E,L
   0A29 1A                 2146 	LD	A,(DE)
   0A2A 5F                 2147 	LD	E,A
   0A2B E0 23              2148 	LDH	(0x23),A
   0A2D FA 01 00           2149 	LD	A,(_soundReg+1)
   0A30 57                 2150 	LD	D,A
   0A31 FA 00 00           2151 	LD	A,(_soundReg)
   0A34 5F                 2152 	LD	E,A
   0A35 21 04 00           2153 	LD	HL,#4
   0A38 19                 2154 	ADD	HL,DE
   0A39 54                 2155 	LD	D,H
   0A3A 5D                 2156 	LD	E,L
   0A3B 1A                 2157 	LD	A,(DE)
   0A3C E6 7F              2158 	AND	#<127
   0A3E 12                 2159 	LD	(DE),A
   0A3F FA 01 00           2160 	LD	A,(_soundReg+1)
   0A42 57                 2161 	LD	D,A
   0A43 FA 00 00           2162 	LD	A,(_soundReg)
   0A46 5F                 2163 	LD	E,A
   0A47 21 09 00           2164 	LD	HL,#9
   0A4A 19                 2165 	ADD	HL,DE
   0A4B 54                 2166 	LD	D,H
   0A4C 5D                 2167 	LD	E,L
   0A4D 1A                 2168 	LD	A,(DE)
   0A4E E6 7F              2169 	AND	#<127
   0A50 12                 2170 	LD	(DE),A
   0A51 FA 01 00           2171 	LD	A,(_soundReg+1)
   0A54 57                 2172 	LD	D,A
   0A55 FA 00 00           2173 	LD	A,(_soundReg)
   0A58 5F                 2174 	LD	E,A
   0A59 21 0E 00           2175 	LD	HL,#14
   0A5C 19                 2176 	ADD	HL,DE
   0A5D 54                 2177 	LD	D,H
   0A5E 5D                 2178 	LD	E,L
   0A5F 1A                 2179 	LD	A,(DE)
   0A60 E6 7F              2180 	AND	#<127
   0A62 12                 2181 	LD	(DE),A
   0A63 FA 01 00           2182 	LD	A,(_soundReg+1)
   0A66 57                 2183 	LD	D,A
   0A67 FA 00 00           2184 	LD	A,(_soundReg)
ASxxxx Assembler V01.75  (GameBoy Z80-like CPU), page 40.



   0A6A 5F                 2185 	LD	E,A
   0A6B 21 13 00           2186 	LD	HL,#19
   0A6E 19                 2187 	ADD	HL,DE
   0A6F 54                 2188 	LD	D,H
   0A70 5D                 2189 	LD	E,L
   0A71 1A                 2190 	LD	A,(DE)
   0A72 E6 7F              2191 	AND	#<127
   0A74 12                 2192 	LD	(DE),A
   0A75 C3 60 19           2193 	JP	.L120
   0A78                    2194 .L119:
                           2195 ;    switch(line)
   0A78 F8 20              2196 	LDA	HL,32(SP)
   0A7A 3E 01              2197 	LD	A,#<1
   0A7C BE                 2198 	CP	(HL)
   0A7D C2 B6 0E           2199 	JP	NZ,.L132
   0A80 F8 21              2200 	LDA	HL,33(SP)
   0A82 5E                 2201 	LD	E,(HL)
   0A83 7B                 2202 	LD	A,E
   0A84 C6 80              2203 	ADD	#0x80
   0A86 FE 8C              2204 	CP	#<140
   0A88 28 03              2205 	JR	Z,.L203
   0A8A D2 9F 0A           2206 	JP	NC,.L150
   0A8D                    2207 .L203:
   0A8D 7B                 2208 	LD	A,E
   0A8E 07                 2209 	RLCA
   0A8F 9F                 2210 	SBC	A
   0A90 57                 2211 	LD	D,A
   0A91 CB 23              2212 	SLA	E
   0A93 CB 12              2213 	RL	D
   0A95 21 68 00           2214 	LD	HL,#.L151
   0A98 19                 2215 	ADD	HL,DE
   0A99 54                 2216 	LD	D,H
   0A9A 5D                 2217 	LD	E,L
   0A9B 2A                 2218 	LD	A,(HL+)
   0A9C 66                 2219 	LD	H,(HL)
   0A9D 6F                 2220 	LD	L,A
   0A9E E9                 2221 	JP	(HL)
                           2222 	;; _CODE ends
                           2223 	.area	_LIT
   0068                    2224 .L151:
   0068 B1 0A              2225 	.dw	.L136
   006A F1 0A              2226 	.dw	.L137
   006C 2F 0B              2227 	.dw	.L138
   006E 67 0B              2228 	.dw	.L139
   0070 AD 0B              2229 	.dw	.L140
   0072 E7 0B              2230 	.dw	.L141
   0074 2B 0C              2231 	.dw	.L142
   0076 6D 0C              2232 	.dw	.L143
   0078 A9 0C              2233 	.dw	.L144
   007A 11 0D              2234 	.dw	.L145
   007C 61 0D              2235 	.dw	.L146
   007E A5 0D              2236 	.dw	.L147
   0080 F1 0D              2237 	.dw	.L148
                           2238 	;; _LIT ends
                           2239 	.area	_CODE
   0A9F                    2240 .L150:
ASxxxx Assembler V01.75  (GameBoy Z80-like CPU), page 41.



                           2241 ;      {
   0A9F F8 21              2242 	LDA	HL,33(SP)
   0AA1 5E                 2243 	LD	E,(HL)
   0AA2 7B                 2244 	LD	A,E
   0AA3 FE 20              2245 	CP	#<32
   0AA5 CA 35 0E           2246 	JP	Z,.L149
   0AA8 7B                 2247 	LD	A,E
   0AA9 FE 21              2248 	CP	#<33
   0AAB CA A9 0C           2249 	JP	Z,.L144
   0AAE C3 60 19           2250 	JP	.L133
   0AB1                    2251 .L136:
                           2252 ;	soundReg->mode1.sweepTime = value;
                           2253 ;	NR10_REG = ((UBYTE *)soundReg)[0x00];
                           2254 ;	break;
   0AB1 FA 01 00           2255 	LD	A,(_soundReg+1)
   0AB4 57                 2256 	LD	D,A
   0AB5 FA 00 00           2257 	LD	A,(_soundReg)
   0AB8 5F                 2258 	LD	E,A
   0AB9 F8 1C              2259 	LDA	HL,28(SP)
   0ABB 7B                 2260 	LD	A,E
   0ABC 22                 2261 	LD	(HL+),A
   0ABD 72                 2262 	LD	(HL),D
   0ABE 1A                 2263 	LD	A,(DE)
   0ABF 4F                 2264 	LD	C,A
   0AC0 3E 8F              2265 	LD	A,#<143
   0AC2 A1                 2266 	AND	C
   0AC3 4F                 2267 	LD	C,A
   0AC4 F8 22              2268 	LDA	HL,34(SP)
   0AC6 2A                 2269 	LD	A,(HL+)
   0AC7 56                 2270 	LD	D,(HL)
   0AC8 5F                 2271 	LD	E,A
   0AC9 3E 07              2272 	LD	A,#<7
   0ACB A3                 2273 	AND	E
   0ACC 5F                 2274 	LD	E,A
   0ACD CB 23              2275 	SLA	E
   0ACF CB 23              2276 	SLA	E
   0AD1 CB 23              2277 	SLA	E
   0AD3 CB 23              2278 	SLA	E
   0AD5 3E 70              2279 	LD	A,#<112
   0AD7 A3                 2280 	AND	E
   0AD8 5F                 2281 	LD	E,A
   0AD9 B1                 2282 	OR	C
   0ADA 5F                 2283 	LD	E,A
   0ADB F8 1C              2284 	LDA	HL,28(SP)
   0ADD 2A                 2285 	LD	A,(HL+)
   0ADE 46                 2286 	LD	B,(HL)
   0ADF 4F                 2287 	LD	C,A
   0AE0 7B                 2288 	LD	A,E
   0AE1 02                 2289 	LD	(BC),A
   0AE2 FA 01 00           2290 	LD	A,(_soundReg+1)
   0AE5 57                 2291 	LD	D,A
   0AE6 FA 00 00           2292 	LD	A,(_soundReg)
   0AE9 5F                 2293 	LD	E,A
   0AEA 1A                 2294 	LD	A,(DE)
   0AEB 5F                 2295 	LD	E,A
   0AEC E0 10              2296 	LDH	(0x10),A
ASxxxx Assembler V01.75  (GameBoy Z80-like CPU), page 42.



   0AEE C3 60 19           2297 	JP	.L133
   0AF1                    2298 .L137:
                           2299 ;	soundReg->mode1.sweepMode = value;
                           2300 ;	NR10_REG = ((UBYTE *)soundReg)[0x00];
                           2301 ;	break;
   0AF1 FA 01 00           2302 	LD	A,(_soundReg+1)
   0AF4 57                 2303 	LD	D,A
   0AF5 FA 00 00           2304 	LD	A,(_soundReg)
   0AF8 5F                 2305 	LD	E,A
   0AF9 F8 1A              2306 	LDA	HL,26(SP)
   0AFB 7B                 2307 	LD	A,E
   0AFC 22                 2308 	LD	(HL+),A
   0AFD 72                 2309 	LD	(HL),D
   0AFE 1A                 2310 	LD	A,(DE)
   0AFF 4F                 2311 	LD	C,A
   0B00 3E F7              2312 	LD	A,#<247
   0B02 A1                 2313 	AND	C
   0B03 4F                 2314 	LD	C,A
   0B04 F8 22              2315 	LDA	HL,34(SP)
   0B06 2A                 2316 	LD	A,(HL+)
   0B07 56                 2317 	LD	D,(HL)
   0B08 5F                 2318 	LD	E,A
   0B09 3E 01              2319 	LD	A,#<1
   0B0B A3                 2320 	AND	E
   0B0C 5F                 2321 	LD	E,A
   0B0D CB 23              2322 	SLA	E
   0B0F CB 23              2323 	SLA	E
   0B11 CB 23              2324 	SLA	E
   0B13 3E 08              2325 	LD	A,#<8
   0B15 A3                 2326 	AND	E
   0B16 5F                 2327 	LD	E,A
   0B17 B1                 2328 	OR	C
   0B18 5F                 2329 	LD	E,A
   0B19 F8 1A              2330 	LDA	HL,26(SP)
   0B1B 2A                 2331 	LD	A,(HL+)
   0B1C 46                 2332 	LD	B,(HL)
   0B1D 4F                 2333 	LD	C,A
   0B1E 7B                 2334 	LD	A,E
   0B1F 02                 2335 	LD	(BC),A
   0B20 FA 01 00           2336 	LD	A,(_soundReg+1)
   0B23 57                 2337 	LD	D,A
   0B24 FA 00 00           2338 	LD	A,(_soundReg)
   0B27 5F                 2339 	LD	E,A
   0B28 1A                 2340 	LD	A,(DE)
   0B29 5F                 2341 	LD	E,A
   0B2A E0 10              2342 	LDH	(0x10),A
   0B2C C3 60 19           2343 	JP	.L133
   0B2F                    2344 .L138:
                           2345 ;	soundReg->mode1.sweepShifts = value;
                           2346 ;	NR10_REG = ((UBYTE *)soundReg)[0x00];
                           2347 ;	break;
   0B2F FA 01 00           2348 	LD	A,(_soundReg+1)
   0B32 57                 2349 	LD	D,A
   0B33 FA 00 00           2350 	LD	A,(_soundReg)
   0B36 5F                 2351 	LD	E,A
   0B37 F8 18              2352 	LDA	HL,24(SP)
ASxxxx Assembler V01.75  (GameBoy Z80-like CPU), page 43.



   0B39 7B                 2353 	LD	A,E
   0B3A 22                 2354 	LD	(HL+),A
   0B3B 72                 2355 	LD	(HL),D
   0B3C 1A                 2356 	LD	A,(DE)
   0B3D 4F                 2357 	LD	C,A
   0B3E 3E F8              2358 	LD	A,#<248
   0B40 A1                 2359 	AND	C
   0B41 4F                 2360 	LD	C,A
   0B42 F8 22              2361 	LDA	HL,34(SP)
   0B44 2A                 2362 	LD	A,(HL+)
   0B45 56                 2363 	LD	D,(HL)
   0B46 5F                 2364 	LD	E,A
   0B47 3E 07              2365 	LD	A,#<7
   0B49 A3                 2366 	AND	E
   0B4A 5F                 2367 	LD	E,A
   0B4B 3E 07              2368 	LD	A,#<7
   0B4D A3                 2369 	AND	E
   0B4E 5F                 2370 	LD	E,A
   0B4F B1                 2371 	OR	C
   0B50 5F                 2372 	LD	E,A
   0B51 F8 18              2373 	LDA	HL,24(SP)
   0B53 2A                 2374 	LD	A,(HL+)
   0B54 46                 2375 	LD	B,(HL)
   0B55 4F                 2376 	LD	C,A
   0B56 7B                 2377 	LD	A,E
   0B57 02                 2378 	LD	(BC),A
   0B58 FA 01 00           2379 	LD	A,(_soundReg+1)
   0B5B 57                 2380 	LD	D,A
   0B5C FA 00 00           2381 	LD	A,(_soundReg)
   0B5F 5F                 2382 	LD	E,A
   0B60 1A                 2383 	LD	A,(DE)
   0B61 5F                 2384 	LD	E,A
   0B62 E0 10              2385 	LDH	(0x10),A
   0B64 C3 60 19           2386 	JP	.L133
   0B67                    2387 .L139:
                           2388 ;	soundReg->mode1.patternDuty = value;
                           2389 ;	NR11_REG = ((UBYTE *)soundReg)[0x01];
                           2390 ;	break;
   0B67 FA 01 00           2391 	LD	A,(_soundReg+1)
   0B6A 57                 2392 	LD	D,A
   0B6B FA 00 00           2393 	LD	A,(_soundReg)
   0B6E 5F                 2394 	LD	E,A
   0B6F 13                 2395 	INC	DE
   0B70 F8 16              2396 	LDA	HL,22(SP)
   0B72 7B                 2397 	LD	A,E
   0B73 22                 2398 	LD	(HL+),A
   0B74 72                 2399 	LD	(HL),D
   0B75 1A                 2400 	LD	A,(DE)
   0B76 4F                 2401 	LD	C,A
   0B77 3E 3F              2402 	LD	A,#<63
   0B79 A1                 2403 	AND	C
   0B7A 4F                 2404 	LD	C,A
   0B7B F8 22              2405 	LDA	HL,34(SP)
   0B7D 2A                 2406 	LD	A,(HL+)
   0B7E 56                 2407 	LD	D,(HL)
   0B7F 5F                 2408 	LD	E,A
ASxxxx Assembler V01.75  (GameBoy Z80-like CPU), page 44.



   0B80 3E 03              2409 	LD	A,#<3
   0B82 A3                 2410 	AND	E
   0B83 5F                 2411 	LD	E,A
   0B84 CB 23              2412 	SLA	E
   0B86 CB 23              2413 	SLA	E
   0B88 CB 23              2414 	SLA	E
   0B8A CB 23              2415 	SLA	E
   0B8C CB 23              2416 	SLA	E
   0B8E CB 23              2417 	SLA	E
   0B90 3E C0              2418 	LD	A,#<192
   0B92 A3                 2419 	AND	E
   0B93 5F                 2420 	LD	E,A
   0B94 B1                 2421 	OR	C
   0B95 5F                 2422 	LD	E,A
   0B96 F8 16              2423 	LDA	HL,22(SP)
   0B98 2A                 2424 	LD	A,(HL+)
   0B99 46                 2425 	LD	B,(HL)
   0B9A 4F                 2426 	LD	C,A
   0B9B 7B                 2427 	LD	A,E
   0B9C 02                 2428 	LD	(BC),A
   0B9D FA 01 00           2429 	LD	A,(_soundReg+1)
   0BA0 57                 2430 	LD	D,A
   0BA1 FA 00 00           2431 	LD	A,(_soundReg)
   0BA4 5F                 2432 	LD	E,A
   0BA5 13                 2433 	INC	DE
   0BA6 1A                 2434 	LD	A,(DE)
   0BA7 5F                 2435 	LD	E,A
   0BA8 E0 11              2436 	LDH	(0x11),A
   0BAA C3 60 19           2437 	JP	.L133
   0BAD                    2438 .L140:
                           2439 ;	soundReg->mode1.soundLength = value;
                           2440 ;	NR11_REG = ((UBYTE *)soundReg)[0x01];
                           2441 ;	break;
   0BAD FA 01 00           2442 	LD	A,(_soundReg+1)
   0BB0 57                 2443 	LD	D,A
   0BB1 FA 00 00           2444 	LD	A,(_soundReg)
   0BB4 5F                 2445 	LD	E,A
   0BB5 13                 2446 	INC	DE
   0BB6 F8 14              2447 	LDA	HL,20(SP)
   0BB8 7B                 2448 	LD	A,E
   0BB9 22                 2449 	LD	(HL+),A
   0BBA 72                 2450 	LD	(HL),D
   0BBB 1A                 2451 	LD	A,(DE)
   0BBC 4F                 2452 	LD	C,A
   0BBD 3E C0              2453 	LD	A,#<192
   0BBF A1                 2454 	AND	C
   0BC0 4F                 2455 	LD	C,A
   0BC1 F8 22              2456 	LDA	HL,34(SP)
   0BC3 2A                 2457 	LD	A,(HL+)
   0BC4 56                 2458 	LD	D,(HL)
   0BC5 5F                 2459 	LD	E,A
   0BC6 3E 3F              2460 	LD	A,#<63
   0BC8 A3                 2461 	AND	E
   0BC9 5F                 2462 	LD	E,A
   0BCA 3E 3F              2463 	LD	A,#<63
   0BCC A3                 2464 	AND	E
ASxxxx Assembler V01.75  (GameBoy Z80-like CPU), page 45.



   0BCD 5F                 2465 	LD	E,A
   0BCE B1                 2466 	OR	C
   0BCF 5F                 2467 	LD	E,A
   0BD0 F8 14              2468 	LDA	HL,20(SP)
   0BD2 2A                 2469 	LD	A,(HL+)
   0BD3 46                 2470 	LD	B,(HL)
   0BD4 4F                 2471 	LD	C,A
   0BD5 7B                 2472 	LD	A,E
   0BD6 02                 2473 	LD	(BC),A
   0BD7 FA 01 00           2474 	LD	A,(_soundReg+1)
   0BDA 57                 2475 	LD	D,A
   0BDB FA 00 00           2476 	LD	A,(_soundReg)
   0BDE 5F                 2477 	LD	E,A
   0BDF 13                 2478 	INC	DE
   0BE0 1A                 2479 	LD	A,(DE)
   0BE1 5F                 2480 	LD	E,A
   0BE2 E0 11              2481 	LDH	(0x11),A
   0BE4 C3 60 19           2482 	JP	.L133
   0BE7                    2483 .L141:
                           2484 ;	soundReg->mode1.envInitialValue = value;
                           2485 ;	NR12_REG = ((UBYTE *)soundReg)[0x02];
                           2486 ;	break;
   0BE7 FA 01 00           2487 	LD	A,(_soundReg+1)
   0BEA 57                 2488 	LD	D,A
   0BEB FA 00 00           2489 	LD	A,(_soundReg)
   0BEE 5F                 2490 	LD	E,A
   0BEF 13                 2491 	INC	DE
   0BF0 13                 2492 	INC	DE
   0BF1 F8 12              2493 	LDA	HL,18(SP)
   0BF3 7B                 2494 	LD	A,E
   0BF4 22                 2495 	LD	(HL+),A
   0BF5 72                 2496 	LD	(HL),D
   0BF6 1A                 2497 	LD	A,(DE)
   0BF7 4F                 2498 	LD	C,A
   0BF8 3E 0F              2499 	LD	A,#<15
   0BFA A1                 2500 	AND	C
   0BFB 4F                 2501 	LD	C,A
   0BFC F8 22              2502 	LDA	HL,34(SP)
   0BFE 2A                 2503 	LD	A,(HL+)
   0BFF 56                 2504 	LD	D,(HL)
   0C00 5F                 2505 	LD	E,A
   0C01 3E 0F              2506 	LD	A,#<15
   0C03 A3                 2507 	AND	E
   0C04 5F                 2508 	LD	E,A
   0C05 CB 23              2509 	SLA	E
   0C07 CB 23              2510 	SLA	E
   0C09 CB 23              2511 	SLA	E
   0C0B CB 23              2512 	SLA	E
   0C0D 3E F0              2513 	LD	A,#<240
   0C0F A3                 2514 	AND	E
   0C10 5F                 2515 	LD	E,A
   0C11 B1                 2516 	OR	C
   0C12 5F                 2517 	LD	E,A
   0C13 F8 12              2518 	LDA	HL,18(SP)
   0C15 2A                 2519 	LD	A,(HL+)
   0C16 46                 2520 	LD	B,(HL)
ASxxxx Assembler V01.75  (GameBoy Z80-like CPU), page 46.



   0C17 4F                 2521 	LD	C,A
   0C18 7B                 2522 	LD	A,E
   0C19 02                 2523 	LD	(BC),A
   0C1A FA 01 00           2524 	LD	A,(_soundReg+1)
   0C1D 57                 2525 	LD	D,A
   0C1E FA 00 00           2526 	LD	A,(_soundReg)
   0C21 5F                 2527 	LD	E,A
   0C22 13                 2528 	INC	DE
   0C23 13                 2529 	INC	DE
   0C24 1A                 2530 	LD	A,(DE)
   0C25 5F                 2531 	LD	E,A
   0C26 E0 12              2532 	LDH	(0x12),A
   0C28 C3 60 19           2533 	JP	.L133
   0C2B                    2534 .L142:
                           2535 ;	soundReg->mode1.envMode = value;
                           2536 ;	NR12_REG = ((UBYTE *)soundReg)[0x02];
                           2537 ;	break;
   0C2B FA 01 00           2538 	LD	A,(_soundReg+1)
   0C2E 57                 2539 	LD	D,A
   0C2F FA 00 00           2540 	LD	A,(_soundReg)
   0C32 5F                 2541 	LD	E,A
   0C33 13                 2542 	INC	DE
   0C34 13                 2543 	INC	DE
   0C35 F8 10              2544 	LDA	HL,16(SP)
   0C37 7B                 2545 	LD	A,E
   0C38 22                 2546 	LD	(HL+),A
   0C39 72                 2547 	LD	(HL),D
   0C3A 1A                 2548 	LD	A,(DE)
   0C3B 4F                 2549 	LD	C,A
   0C3C 3E F7              2550 	LD	A,#<247
   0C3E A1                 2551 	AND	C
   0C3F 4F                 2552 	LD	C,A
   0C40 F8 22              2553 	LDA	HL,34(SP)
   0C42 2A                 2554 	LD	A,(HL+)
   0C43 56                 2555 	LD	D,(HL)
   0C44 5F                 2556 	LD	E,A
   0C45 3E 01              2557 	LD	A,#<1
   0C47 A3                 2558 	AND	E
   0C48 5F                 2559 	LD	E,A
   0C49 CB 23              2560 	SLA	E
   0C4B CB 23              2561 	SLA	E
   0C4D CB 23              2562 	SLA	E
   0C4F 3E 08              2563 	LD	A,#<8
   0C51 A3                 2564 	AND	E
   0C52 5F                 2565 	LD	E,A
   0C53 B1                 2566 	OR	C
   0C54 5F                 2567 	LD	E,A
   0C55 F8 10              2568 	LDA	HL,16(SP)
   0C57 2A                 2569 	LD	A,(HL+)
   0C58 46                 2570 	LD	B,(HL)
   0C59 4F                 2571 	LD	C,A
   0C5A 7B                 2572 	LD	A,E
   0C5B 02                 2573 	LD	(BC),A
   0C5C FA 01 00           2574 	LD	A,(_soundReg+1)
   0C5F 57                 2575 	LD	D,A
   0C60 FA 00 00           2576 	LD	A,(_soundReg)
ASxxxx Assembler V01.75  (GameBoy Z80-like CPU), page 47.



   0C63 5F                 2577 	LD	E,A
   0C64 13                 2578 	INC	DE
   0C65 13                 2579 	INC	DE
   0C66 1A                 2580 	LD	A,(DE)
   0C67 5F                 2581 	LD	E,A
   0C68 E0 12              2582 	LDH	(0x12),A
   0C6A C3 60 19           2583 	JP	.L133
   0C6D                    2584 .L143:
                           2585 ;	soundReg->mode1.envNbSweep = value;
                           2586 ;	NR12_REG = ((UBYTE *)soundReg)[0x02];
                           2587 ;	break;
   0C6D FA 01 00           2588 	LD	A,(_soundReg+1)
   0C70 57                 2589 	LD	D,A
   0C71 FA 00 00           2590 	LD	A,(_soundReg)
   0C74 5F                 2591 	LD	E,A
   0C75 13                 2592 	INC	DE
   0C76 13                 2593 	INC	DE
   0C77 F8 0E              2594 	LDA	HL,14(SP)
   0C79 7B                 2595 	LD	A,E
   0C7A 22                 2596 	LD	(HL+),A
   0C7B 72                 2597 	LD	(HL),D
   0C7C 1A                 2598 	LD	A,(DE)
   0C7D 4F                 2599 	LD	C,A
   0C7E 3E F8              2600 	LD	A,#<248
   0C80 A1                 2601 	AND	C
   0C81 4F                 2602 	LD	C,A
   0C82 F8 22              2603 	LDA	HL,34(SP)
   0C84 2A                 2604 	LD	A,(HL+)
   0C85 56                 2605 	LD	D,(HL)
   0C86 5F                 2606 	LD	E,A
   0C87 3E 07              2607 	LD	A,#<7
   0C89 A3                 2608 	AND	E
   0C8A 5F                 2609 	LD	E,A
   0C8B 3E 07              2610 	LD	A,#<7
   0C8D A3                 2611 	AND	E
   0C8E 5F                 2612 	LD	E,A
   0C8F B1                 2613 	OR	C
   0C90 5F                 2614 	LD	E,A
   0C91 F8 0E              2615 	LDA	HL,14(SP)
   0C93 2A                 2616 	LD	A,(HL+)
   0C94 46                 2617 	LD	B,(HL)
   0C95 4F                 2618 	LD	C,A
   0C96 7B                 2619 	LD	A,E
   0C97 02                 2620 	LD	(BC),A
   0C98 FA 01 00           2621 	LD	A,(_soundReg+1)
   0C9B 57                 2622 	LD	D,A
   0C9C FA 00 00           2623 	LD	A,(_soundReg)
   0C9F 5F                 2624 	LD	E,A
   0CA0 13                 2625 	INC	DE
   0CA1 13                 2626 	INC	DE
   0CA2 1A                 2627 	LD	A,(DE)
   0CA3 5F                 2628 	LD	E,A
   0CA4 E0 12              2629 	LDH	(0x12),A
   0CA6 C3 60 19           2630 	JP	.L133
   0CA9                    2631 .L144:
                           2632 ;	soundReg->mode1.frequencyHigh = value >> 8;
ASxxxx Assembler V01.75  (GameBoy Z80-like CPU), page 48.



                           2633 ;	soundReg->mode1.frequencyLow  = value;
                           2634 ;	NR13_REG = ((UBYTE *)soundReg)[0x03];
                           2635 ;	NR14_REG = ((UBYTE *)soundReg)[0x04];
                           2636 ;	break;
   0CA9 FA 01 00           2637 	LD	A,(_soundReg+1)
   0CAC 57                 2638 	LD	D,A
   0CAD FA 00 00           2639 	LD	A,(_soundReg)
   0CB0 5F                 2640 	LD	E,A
   0CB1 21 04 00           2641 	LD	HL,#4
   0CB4 19                 2642 	ADD	HL,DE
   0CB5 54                 2643 	LD	D,H
   0CB6 5D                 2644 	LD	E,L
   0CB7 F8 0C              2645 	LDA	HL,12(SP)
   0CB9 7B                 2646 	LD	A,E
   0CBA 22                 2647 	LD	(HL+),A
   0CBB 72                 2648 	LD	(HL),D
   0CBC 1A                 2649 	LD	A,(DE)
   0CBD 4F                 2650 	LD	C,A
   0CBE 3E F8              2651 	LD	A,#<248
   0CC0 A1                 2652 	AND	C
   0CC1 4F                 2653 	LD	C,A
   0CC2 F8 22              2654 	LDA	HL,34(SP)
   0CC4 2A                 2655 	LD	A,(HL+)
   0CC5 56                 2656 	LD	D,(HL)
   0CC6 5F                 2657 	LD	E,A
   0CC7 7A                 2658 	LD	A,D
   0CC8 5F                 2659 	LD	E,A
   0CC9 AF                 2660 	XOR	A
   0CCA 57                 2661 	LD	D,A
   0CCB 3E 07              2662 	LD	A,#<7
   0CCD A3                 2663 	AND	E
   0CCE 5F                 2664 	LD	E,A
   0CCF 3E 07              2665 	LD	A,#<7
   0CD1 A3                 2666 	AND	E
   0CD2 5F                 2667 	LD	E,A
   0CD3 B1                 2668 	OR	C
   0CD4 5F                 2669 	LD	E,A
   0CD5 F8 0C              2670 	LDA	HL,12(SP)
   0CD7 2A                 2671 	LD	A,(HL+)
   0CD8 46                 2672 	LD	B,(HL)
   0CD9 4F                 2673 	LD	C,A
   0CDA 7B                 2674 	LD	A,E
   0CDB 02                 2675 	LD	(BC),A
   0CDC FA 01 00           2676 	LD	A,(_soundReg+1)
   0CDF 57                 2677 	LD	D,A
   0CE0 FA 00 00           2678 	LD	A,(_soundReg)
   0CE3 5F                 2679 	LD	E,A
   0CE4 13                 2680 	INC	DE
   0CE5 13                 2681 	INC	DE
   0CE6 13                 2682 	INC	DE
   0CE7 F8 22              2683 	LDA	HL,34(SP)
   0CE9 2A                 2684 	LD	A,(HL+)
   0CEA 46                 2685 	LD	B,(HL)
   0CEB 4F                 2686 	LD	C,A
   0CEC 12                 2687 	LD	(DE),A
   0CED FA 01 00           2688 	LD	A,(_soundReg+1)
ASxxxx Assembler V01.75  (GameBoy Z80-like CPU), page 49.



   0CF0 57                 2689 	LD	D,A
   0CF1 FA 00 00           2690 	LD	A,(_soundReg)
   0CF4 5F                 2691 	LD	E,A
   0CF5 13                 2692 	INC	DE
   0CF6 13                 2693 	INC	DE
   0CF7 13                 2694 	INC	DE
   0CF8 1A                 2695 	LD	A,(DE)
   0CF9 5F                 2696 	LD	E,A
   0CFA E0 13              2697 	LDH	(0x13),A
   0CFC FA 01 00           2698 	LD	A,(_soundReg+1)
   0CFF 57                 2699 	LD	D,A
   0D00 FA 00 00           2700 	LD	A,(_soundReg)
   0D03 5F                 2701 	LD	E,A
   0D04 21 04 00           2702 	LD	HL,#4
   0D07 19                 2703 	ADD	HL,DE
   0D08 54                 2704 	LD	D,H
   0D09 5D                 2705 	LD	E,L
   0D0A 1A                 2706 	LD	A,(DE)
   0D0B 5F                 2707 	LD	E,A
   0D0C E0 14              2708 	LDH	(0x14),A
   0D0E C3 60 19           2709 	JP	.L133
   0D11                    2710 .L145:
                           2711 ;	soundReg->mode1.counter_ConsSel = value;
                           2712 ;	NR14_REG = ((UBYTE *)soundReg)[0x04];
                           2713 ;	break;
   0D11 FA 01 00           2714 	LD	A,(_soundReg+1)
   0D14 57                 2715 	LD	D,A
   0D15 FA 00 00           2716 	LD	A,(_soundReg)
   0D18 5F                 2717 	LD	E,A
   0D19 21 04 00           2718 	LD	HL,#4
   0D1C 19                 2719 	ADD	HL,DE
   0D1D 54                 2720 	LD	D,H
   0D1E 5D                 2721 	LD	E,L
   0D1F F8 0A              2722 	LDA	HL,10(SP)
   0D21 7B                 2723 	LD	A,E
   0D22 22                 2724 	LD	(HL+),A
   0D23 72                 2725 	LD	(HL),D
   0D24 1A                 2726 	LD	A,(DE)
   0D25 4F                 2727 	LD	C,A
   0D26 3E BF              2728 	LD	A,#<191
   0D28 A1                 2729 	AND	C
   0D29 4F                 2730 	LD	C,A
   0D2A F8 22              2731 	LDA	HL,34(SP)
   0D2C 2A                 2732 	LD	A,(HL+)
   0D2D 56                 2733 	LD	D,(HL)
   0D2E 5F                 2734 	LD	E,A
   0D2F 3E 01              2735 	LD	A,#<1
   0D31 A3                 2736 	AND	E
   0D32 5F                 2737 	LD	E,A
   0D33 CB 23              2738 	SLA	E
   0D35 CB 23              2739 	SLA	E
   0D37 CB 23              2740 	SLA	E
   0D39 CB 23              2741 	SLA	E
   0D3B CB 23              2742 	SLA	E
   0D3D CB 23              2743 	SLA	E
   0D3F 3E 40              2744 	LD	A,#<64
ASxxxx Assembler V01.75  (GameBoy Z80-like CPU), page 50.



   0D41 A3                 2745 	AND	E
   0D42 5F                 2746 	LD	E,A
   0D43 B1                 2747 	OR	C
   0D44 5F                 2748 	LD	E,A
   0D45 F8 0A              2749 	LDA	HL,10(SP)
   0D47 2A                 2750 	LD	A,(HL+)
   0D48 46                 2751 	LD	B,(HL)
   0D49 4F                 2752 	LD	C,A
   0D4A 7B                 2753 	LD	A,E
   0D4B 02                 2754 	LD	(BC),A
   0D4C FA 01 00           2755 	LD	A,(_soundReg+1)
   0D4F 57                 2756 	LD	D,A
   0D50 FA 00 00           2757 	LD	A,(_soundReg)
   0D53 5F                 2758 	LD	E,A
   0D54 21 04 00           2759 	LD	HL,#4
   0D57 19                 2760 	ADD	HL,DE
   0D58 54                 2761 	LD	D,H
   0D59 5D                 2762 	LD	E,L
   0D5A 1A                 2763 	LD	A,(DE)
   0D5B 5F                 2764 	LD	E,A
   0D5C E0 14              2765 	LDH	(0x14),A
   0D5E C3 60 19           2766 	JP	.L133
   0D61                    2767 .L146:
                           2768 ;	soundReg->control.Sound1_To_SO1 = value;
                           2769 ;	NR51_REG = ((UBYTE *)soundReg)[0x15];
                           2770 ;	break;
   0D61 FA 01 00           2771 	LD	A,(_soundReg+1)
   0D64 57                 2772 	LD	D,A
   0D65 FA 00 00           2773 	LD	A,(_soundReg)
   0D68 5F                 2774 	LD	E,A
   0D69 21 15 00           2775 	LD	HL,#21
   0D6C 19                 2776 	ADD	HL,DE
   0D6D 54                 2777 	LD	D,H
   0D6E 5D                 2778 	LD	E,L
   0D6F F8 08              2779 	LDA	HL,8(SP)
   0D71 7B                 2780 	LD	A,E
   0D72 22                 2781 	LD	(HL+),A
   0D73 72                 2782 	LD	(HL),D
   0D74 1A                 2783 	LD	A,(DE)
   0D75 4F                 2784 	LD	C,A
   0D76 3E FE              2785 	LD	A,#<254
   0D78 A1                 2786 	AND	C
   0D79 4F                 2787 	LD	C,A
   0D7A F8 22              2788 	LDA	HL,34(SP)
   0D7C 2A                 2789 	LD	A,(HL+)
   0D7D 56                 2790 	LD	D,(HL)
   0D7E 5F                 2791 	LD	E,A
   0D7F 3E 01              2792 	LD	A,#<1
   0D81 A3                 2793 	AND	E
   0D82 5F                 2794 	LD	E,A
   0D83 3E 01              2795 	LD	A,#<1
   0D85 A3                 2796 	AND	E
   0D86 5F                 2797 	LD	E,A
   0D87 B1                 2798 	OR	C
   0D88 5F                 2799 	LD	E,A
   0D89 F8 08              2800 	LDA	HL,8(SP)
ASxxxx Assembler V01.75  (GameBoy Z80-like CPU), page 51.



   0D8B 2A                 2801 	LD	A,(HL+)
   0D8C 46                 2802 	LD	B,(HL)
   0D8D 4F                 2803 	LD	C,A
   0D8E 7B                 2804 	LD	A,E
   0D8F 02                 2805 	LD	(BC),A
   0D90 FA 01 00           2806 	LD	A,(_soundReg+1)
   0D93 57                 2807 	LD	D,A
   0D94 FA 00 00           2808 	LD	A,(_soundReg)
   0D97 5F                 2809 	LD	E,A
   0D98 21 15 00           2810 	LD	HL,#21
   0D9B 19                 2811 	ADD	HL,DE
   0D9C 54                 2812 	LD	D,H
   0D9D 5D                 2813 	LD	E,L
   0D9E 1A                 2814 	LD	A,(DE)
   0D9F 5F                 2815 	LD	E,A
   0DA0 E0 25              2816 	LDH	(0x25),A
   0DA2 C3 60 19           2817 	JP	.L133
   0DA5                    2818 .L147:
                           2819 ;	soundReg->control.Sound1_To_SO2 = value;
                           2820 ;	NR51_REG = ((UBYTE *)soundReg)[0x15];
                           2821 ;	break;
   0DA5 FA 01 00           2822 	LD	A,(_soundReg+1)
   0DA8 57                 2823 	LD	D,A
   0DA9 FA 00 00           2824 	LD	A,(_soundReg)
   0DAC 5F                 2825 	LD	E,A
   0DAD 21 15 00           2826 	LD	HL,#21
   0DB0 19                 2827 	ADD	HL,DE
   0DB1 54                 2828 	LD	D,H
   0DB2 5D                 2829 	LD	E,L
   0DB3 F8 06              2830 	LDA	HL,6(SP)
   0DB5 7B                 2831 	LD	A,E
   0DB6 22                 2832 	LD	(HL+),A
   0DB7 72                 2833 	LD	(HL),D
   0DB8 1A                 2834 	LD	A,(DE)
   0DB9 4F                 2835 	LD	C,A
   0DBA 3E EF              2836 	LD	A,#<239
   0DBC A1                 2837 	AND	C
   0DBD 4F                 2838 	LD	C,A
   0DBE F8 22              2839 	LDA	HL,34(SP)
   0DC0 2A                 2840 	LD	A,(HL+)
   0DC1 56                 2841 	LD	D,(HL)
   0DC2 5F                 2842 	LD	E,A
   0DC3 3E 01              2843 	LD	A,#<1
   0DC5 A3                 2844 	AND	E
   0DC6 5F                 2845 	LD	E,A
   0DC7 CB 23              2846 	SLA	E
   0DC9 CB 23              2847 	SLA	E
   0DCB CB 23              2848 	SLA	E
   0DCD CB 23              2849 	SLA	E
   0DCF 3E 10              2850 	LD	A,#<16
   0DD1 A3                 2851 	AND	E
   0DD2 5F                 2852 	LD	E,A
   0DD3 B1                 2853 	OR	C
   0DD4 5F                 2854 	LD	E,A
   0DD5 F8 06              2855 	LDA	HL,6(SP)
   0DD7 2A                 2856 	LD	A,(HL+)
ASxxxx Assembler V01.75  (GameBoy Z80-like CPU), page 52.



   0DD8 46                 2857 	LD	B,(HL)
   0DD9 4F                 2858 	LD	C,A
   0DDA 7B                 2859 	LD	A,E
   0DDB 02                 2860 	LD	(BC),A
   0DDC FA 01 00           2861 	LD	A,(_soundReg+1)
   0DDF 57                 2862 	LD	D,A
   0DE0 FA 00 00           2863 	LD	A,(_soundReg)
   0DE3 5F                 2864 	LD	E,A
   0DE4 21 15 00           2865 	LD	HL,#21
   0DE7 19                 2866 	ADD	HL,DE
   0DE8 54                 2867 	LD	D,H
   0DE9 5D                 2868 	LD	E,L
   0DEA 1A                 2869 	LD	A,(DE)
   0DEB 5F                 2870 	LD	E,A
   0DEC E0 25              2871 	LDH	(0x25),A
   0DEE C3 60 19           2872 	JP	.L133
   0DF1                    2873 .L148:
                           2874 ;	soundReg->control.Sound1_On_Off = value;
                           2875 ;	NR52_REG = ((UBYTE *)soundReg)[0x16];
                           2876 ;	break;
   0DF1 FA 01 00           2877 	LD	A,(_soundReg+1)
   0DF4 57                 2878 	LD	D,A
   0DF5 FA 00 00           2879 	LD	A,(_soundReg)
   0DF8 5F                 2880 	LD	E,A
   0DF9 21 16 00           2881 	LD	HL,#22
   0DFC 19                 2882 	ADD	HL,DE
   0DFD 54                 2883 	LD	D,H
   0DFE 5D                 2884 	LD	E,L
   0DFF F8 04              2885 	LDA	HL,4(SP)
   0E01 7B                 2886 	LD	A,E
   0E02 22                 2887 	LD	(HL+),A
   0E03 72                 2888 	LD	(HL),D
   0E04 1A                 2889 	LD	A,(DE)
   0E05 4F                 2890 	LD	C,A
   0E06 3E FE              2891 	LD	A,#<254
   0E08 A1                 2892 	AND	C
   0E09 4F                 2893 	LD	C,A
   0E0A F8 22              2894 	LDA	HL,34(SP)
   0E0C 2A                 2895 	LD	A,(HL+)
   0E0D 56                 2896 	LD	D,(HL)
   0E0E 5F                 2897 	LD	E,A
   0E0F 3E 01              2898 	LD	A,#<1
   0E11 A3                 2899 	AND	E
   0E12 5F                 2900 	LD	E,A
   0E13 3E 01              2901 	LD	A,#<1
   0E15 A3                 2902 	AND	E
   0E16 5F                 2903 	LD	E,A
   0E17 B1                 2904 	OR	C
   0E18 5F                 2905 	LD	E,A
   0E19 F8 04              2906 	LDA	HL,4(SP)
   0E1B 2A                 2907 	LD	A,(HL+)
   0E1C 46                 2908 	LD	B,(HL)
   0E1D 4F                 2909 	LD	C,A
   0E1E 7B                 2910 	LD	A,E
   0E1F 02                 2911 	LD	(BC),A
   0E20 FA 01 00           2912 	LD	A,(_soundReg+1)
ASxxxx Assembler V01.75  (GameBoy Z80-like CPU), page 53.



   0E23 57                 2913 	LD	D,A
   0E24 FA 00 00           2914 	LD	A,(_soundReg)
   0E27 5F                 2915 	LD	E,A
   0E28 21 16 00           2916 	LD	HL,#22
   0E2B 19                 2917 	ADD	HL,DE
   0E2C 54                 2918 	LD	D,H
   0E2D 5D                 2919 	LD	E,L
   0E2E 1A                 2920 	LD	A,(DE)
   0E2F 5F                 2921 	LD	E,A
   0E30 E0 26              2922 	LDH	(0x26),A
   0E32 C3 60 19           2923 	JP	.L133
   0E35                    2924 .L149:
                           2925 ;	update_value(mode, FREQUENCY, current_value(mode, FREQUENCY));
                           2926 ;	soundReg->mode1.restart = value;
                           2927 ;	NR14_REG = ((UBYTE *)soundReg)[0x04];
                           2928 ;	soundReg->mode1.restart = 0;
                           2929 ;	break;
                           2930 ;  } else if(mode == 2) {
   0E35 3E 21              2931 	LD	A,#<33
   0E37 F5                 2932 	PUSH	AF
   0E38 33                 2933 	INC	SP
   0E39 F8 21              2934 	LDA	HL,33(SP)
   0E3B 7E                 2935 	LD	A,(HL)
   0E3C F5                 2936 	PUSH	AF
   0E3D 33                 2937 	INC	SP
   0E3E CD 00 00           2938 	CALL	_current_value
   0E41 E8 02              2939 	LDA	SP,2(SP)
   0E43 D5                 2940 	PUSH	DE
   0E44 3E 21              2941 	LD	A,#<33
   0E46 F5                 2942 	PUSH	AF
   0E47 33                 2943 	INC	SP
   0E48 F8 23              2944 	LDA	HL,35(SP)
   0E4A 7E                 2945 	LD	A,(HL)
   0E4B F5                 2946 	PUSH	AF
   0E4C 33                 2947 	INC	SP
   0E4D CD AA 06           2948 	CALL	_update_value
   0E50 E8 04              2949 	LDA	SP,4(SP)
   0E52 FA 01 00           2950 	LD	A,(_soundReg+1)
   0E55 57                 2951 	LD	D,A
   0E56 FA 00 00           2952 	LD	A,(_soundReg)
   0E59 5F                 2953 	LD	E,A
   0E5A 21 04 00           2954 	LD	HL,#4
   0E5D 19                 2955 	ADD	HL,DE
   0E5E 54                 2956 	LD	D,H
   0E5F 5D                 2957 	LD	E,L
   0E60 F8 02              2958 	LDA	HL,2(SP)
   0E62 7B                 2959 	LD	A,E
   0E63 22                 2960 	LD	(HL+),A
   0E64 72                 2961 	LD	(HL),D
   0E65 1A                 2962 	LD	A,(DE)
   0E66 4F                 2963 	LD	C,A
   0E67 3E 7F              2964 	LD	A,#<127
   0E69 A1                 2965 	AND	C
   0E6A 4F                 2966 	LD	C,A
   0E6B F8 22              2967 	LDA	HL,34(SP)
   0E6D 2A                 2968 	LD	A,(HL+)
ASxxxx Assembler V01.75  (GameBoy Z80-like CPU), page 54.



   0E6E 56                 2969 	LD	D,(HL)
   0E6F 5F                 2970 	LD	E,A
   0E70 3E 01              2971 	LD	A,#<1
   0E72 A3                 2972 	AND	E
   0E73 5F                 2973 	LD	E,A
   0E74 CB 23              2974 	SLA	E
   0E76 CB 23              2975 	SLA	E
   0E78 CB 23              2976 	SLA	E
   0E7A CB 23              2977 	SLA	E
   0E7C CB 23              2978 	SLA	E
   0E7E CB 23              2979 	SLA	E
   0E80 CB 23              2980 	SLA	E
   0E82 3E 80              2981 	LD	A,#<128
   0E84 A3                 2982 	AND	E
   0E85 5F                 2983 	LD	E,A
   0E86 B1                 2984 	OR	C
   0E87 5F                 2985 	LD	E,A
   0E88 F8 02              2986 	LDA	HL,2(SP)
   0E8A 2A                 2987 	LD	A,(HL+)
   0E8B 46                 2988 	LD	B,(HL)
   0E8C 4F                 2989 	LD	C,A
   0E8D 7B                 2990 	LD	A,E
   0E8E 02                 2991 	LD	(BC),A
   0E8F FA 01 00           2992 	LD	A,(_soundReg+1)
   0E92 57                 2993 	LD	D,A
   0E93 FA 00 00           2994 	LD	A,(_soundReg)
   0E96 5F                 2995 	LD	E,A
   0E97 21 04 00           2996 	LD	HL,#4
   0E9A 19                 2997 	ADD	HL,DE
   0E9B 54                 2998 	LD	D,H
   0E9C 5D                 2999 	LD	E,L
   0E9D 1A                 3000 	LD	A,(DE)
   0E9E 5F                 3001 	LD	E,A
   0E9F E0 14              3002 	LDH	(0x14),A
   0EA1 FA 01 00           3003 	LD	A,(_soundReg+1)
   0EA4 57                 3004 	LD	D,A
   0EA5 FA 00 00           3005 	LD	A,(_soundReg)
   0EA8 5F                 3006 	LD	E,A
   0EA9 21 04 00           3007 	LD	HL,#4
   0EAC 19                 3008 	ADD	HL,DE
   0EAD 54                 3009 	LD	D,H
   0EAE 5D                 3010 	LD	E,L
   0EAF 1A                 3011 	LD	A,(DE)
   0EB0 E6 7F              3012 	AND	#<127
   0EB2 12                 3013 	LD	(DE),A
   0EB3 C3 60 19           3014 	JP	.L133
   0EB6                    3015 .L132:
                           3016 ;    switch(line)
   0EB6 F8 20              3017 	LDA	HL,32(SP)
   0EB8 3E 02              3018 	LD	A,#<2
   0EBA BE                 3019 	CP	(HL)
   0EBB C2 7D 12           3020 	JP	NZ,.L152
   0EBE F8 21              3021 	LDA	HL,33(SP)
   0EC0 5E                 3022 	LD	E,(HL)
   0EC1 7B                 3023 	LD	A,E
   0EC2 C6 80              3024 	ADD	#0x80
ASxxxx Assembler V01.75  (GameBoy Z80-like CPU), page 55.



   0EC4 FE 89              3025 	CP	#<137
   0EC6 28 03              3026 	JR	Z,.L204
   0EC8 D2 DD 0E           3027 	JP	NC,.L167
   0ECB                    3028 .L204:
   0ECB 7B                 3029 	LD	A,E
   0ECC 07                 3030 	RLCA
   0ECD 9F                 3031 	SBC	A
   0ECE 57                 3032 	LD	D,A
   0ECF CB 23              3033 	SLA	E
   0ED1 CB 12              3034 	RL	D
   0ED3 21 82 00           3035 	LD	HL,#.L168
   0ED6 19                 3036 	ADD	HL,DE
   0ED7 54                 3037 	LD	D,H
   0ED8 5D                 3038 	LD	E,L
   0ED9 2A                 3039 	LD	A,(HL+)
   0EDA 66                 3040 	LD	H,(HL)
   0EDB 6F                 3041 	LD	L,A
   0EDC E9                 3042 	JP	(HL)
                           3043 	;; _CODE ends
                           3044 	.area	_LIT
   0082                    3045 .L168:
   0082 EF 0E              3046 	.dw	.L156
   0084 46 0F              3047 	.dw	.L157
   0086 8A 0F              3048 	.dw	.L158
   0088 D6 0F              3049 	.dw	.L159
   008A 20 10              3050 	.dw	.L160
   008C 64 10              3051 	.dw	.L161
   008E D2 10              3052 	.dw	.L162
   0090 22 11              3053 	.dw	.L163
   0092 68 11              3054 	.dw	.L164
   0094 B6 11              3055 	.dw	.L165
                           3056 	;; _LIT ends
                           3057 	.area	_CODE
   0EDD                    3058 .L167:
                           3059 ;      {
   0EDD F8 21              3060 	LDA	HL,33(SP)
   0EDF 5E                 3061 	LD	E,(HL)
   0EE0 7B                 3062 	LD	A,E
   0EE1 FE 20              3063 	CP	#<32
   0EE3 CA FC 11           3064 	JP	Z,.L166
   0EE6 7B                 3065 	LD	A,E
   0EE7 FE 21              3066 	CP	#<33
   0EE9 CA 64 10           3067 	JP	Z,.L161
   0EEC C3 60 19           3068 	JP	.L153
   0EEF                    3069 .L156:
                           3070 ;	soundReg->mode2.patternDuty = value;
                           3071 ;	NR21_REG = ((UBYTE *)soundReg)[0x06];
                           3072 ;	break;
   0EEF FA 01 00           3073 	LD	A,(_soundReg+1)
   0EF2 57                 3074 	LD	D,A
   0EF3 FA 00 00           3075 	LD	A,(_soundReg)
   0EF6 5F                 3076 	LD	E,A
   0EF7 21 06 00           3077 	LD	HL,#6
   0EFA 19                 3078 	ADD	HL,DE
   0EFB 54                 3079 	LD	D,H
   0EFC 5D                 3080 	LD	E,L
ASxxxx Assembler V01.75  (GameBoy Z80-like CPU), page 56.



   0EFD F8 1C              3081 	LDA	HL,28(SP)
   0EFF 7B                 3082 	LD	A,E
   0F00 22                 3083 	LD	(HL+),A
   0F01 72                 3084 	LD	(HL),D
   0F02 1A                 3085 	LD	A,(DE)
   0F03 4F                 3086 	LD	C,A
   0F04 3E 3F              3087 	LD	A,#<63
   0F06 A1                 3088 	AND	C
   0F07 4F                 3089 	LD	C,A
   0F08 F8 1B              3090 	LDA	HL,27(SP)
   0F0A 71                 3091 	LD	(HL),C
   0F0B F8 22              3092 	LDA	HL,34(SP)
   0F0D 2A                 3093 	LD	A,(HL+)
   0F0E 56                 3094 	LD	D,(HL)
   0F0F 5F                 3095 	LD	E,A
   0F10 3E 03              3096 	LD	A,#<3
   0F12 A3                 3097 	AND	E
   0F13 4F                 3098 	LD	C,A
   0F14 CB 21              3099 	SLA	C
   0F16 CB 21              3100 	SLA	C
   0F18 CB 21              3101 	SLA	C
   0F1A CB 21              3102 	SLA	C
   0F1C CB 21              3103 	SLA	C
   0F1E CB 21              3104 	SLA	C
   0F20 3E C0              3105 	LD	A,#<192
   0F22 A1                 3106 	AND	C
   0F23 5F                 3107 	LD	E,A
   0F24 F8 1B              3108 	LDA	HL,27(SP)
   0F26 4E                 3109 	LD	C,(HL)
   0F27 7B                 3110 	LD	A,E
   0F28 B1                 3111 	OR	C
   0F29 5F                 3112 	LD	E,A
   0F2A F8 1C              3113 	LDA	HL,28(SP)
   0F2C 2A                 3114 	LD	A,(HL+)
   0F2D 46                 3115 	LD	B,(HL)
   0F2E 4F                 3116 	LD	C,A
   0F2F 7B                 3117 	LD	A,E
   0F30 02                 3118 	LD	(BC),A
   0F31 FA 01 00           3119 	LD	A,(_soundReg+1)
   0F34 57                 3120 	LD	D,A
   0F35 FA 00 00           3121 	LD	A,(_soundReg)
   0F38 5F                 3122 	LD	E,A
   0F39 21 06 00           3123 	LD	HL,#6
   0F3C 19                 3124 	ADD	HL,DE
   0F3D 54                 3125 	LD	D,H
   0F3E 5D                 3126 	LD	E,L
   0F3F 1A                 3127 	LD	A,(DE)
   0F40 5F                 3128 	LD	E,A
   0F41 E0 16              3129 	LDH	(0x16),A
   0F43 C3 60 19           3130 	JP	.L153
   0F46                    3131 .L157:
                           3132 ;	soundReg->mode2.soundLength = value;
                           3133 ;	NR21_REG = ((UBYTE *)soundReg)[0x06];
                           3134 ;	break;
   0F46 FA 01 00           3135 	LD	A,(_soundReg+1)
   0F49 57                 3136 	LD	D,A
ASxxxx Assembler V01.75  (GameBoy Z80-like CPU), page 57.



   0F4A FA 00 00           3137 	LD	A,(_soundReg)
   0F4D 5F                 3138 	LD	E,A
   0F4E 21 06 00           3139 	LD	HL,#6
   0F51 19                 3140 	ADD	HL,DE
   0F52 54                 3141 	LD	D,H
   0F53 5D                 3142 	LD	E,L
   0F54 F8 19              3143 	LDA	HL,25(SP)
   0F56 7B                 3144 	LD	A,E
   0F57 22                 3145 	LD	(HL+),A
   0F58 72                 3146 	LD	(HL),D
   0F59 1A                 3147 	LD	A,(DE)
   0F5A 4F                 3148 	LD	C,A
   0F5B 3E C0              3149 	LD	A,#<192
   0F5D A1                 3150 	AND	C
   0F5E 4F                 3151 	LD	C,A
   0F5F F8 22              3152 	LDA	HL,34(SP)
   0F61 2A                 3153 	LD	A,(HL+)
   0F62 56                 3154 	LD	D,(HL)
   0F63 5F                 3155 	LD	E,A
   0F64 3E 3F              3156 	LD	A,#<63
   0F66 A3                 3157 	AND	E
   0F67 5F                 3158 	LD	E,A
   0F68 3E 3F              3159 	LD	A,#<63
   0F6A A3                 3160 	AND	E
   0F6B 5F                 3161 	LD	E,A
   0F6C B1                 3162 	OR	C
   0F6D 5F                 3163 	LD	E,A
   0F6E F8 19              3164 	LDA	HL,25(SP)
   0F70 2A                 3165 	LD	A,(HL+)
   0F71 46                 3166 	LD	B,(HL)
   0F72 4F                 3167 	LD	C,A
   0F73 7B                 3168 	LD	A,E
   0F74 02                 3169 	LD	(BC),A
   0F75 FA 01 00           3170 	LD	A,(_soundReg+1)
   0F78 57                 3171 	LD	D,A
   0F79 FA 00 00           3172 	LD	A,(_soundReg)
   0F7C 5F                 3173 	LD	E,A
   0F7D 21 06 00           3174 	LD	HL,#6
   0F80 19                 3175 	ADD	HL,DE
   0F81 54                 3176 	LD	D,H
   0F82 5D                 3177 	LD	E,L
   0F83 1A                 3178 	LD	A,(DE)
   0F84 5F                 3179 	LD	E,A
   0F85 E0 16              3180 	LDH	(0x16),A
   0F87 C3 60 19           3181 	JP	.L153
   0F8A                    3182 .L158:
                           3183 ;	soundReg->mode2.envInitialValue = value;
                           3184 ;	NR22_REG = ((UBYTE *)soundReg)[0x07];
                           3185 ;	break;
   0F8A FA 01 00           3186 	LD	A,(_soundReg+1)
   0F8D 57                 3187 	LD	D,A
   0F8E FA 00 00           3188 	LD	A,(_soundReg)
   0F91 5F                 3189 	LD	E,A
   0F92 21 07 00           3190 	LD	HL,#7
   0F95 19                 3191 	ADD	HL,DE
   0F96 54                 3192 	LD	D,H
ASxxxx Assembler V01.75  (GameBoy Z80-like CPU), page 58.



   0F97 5D                 3193 	LD	E,L
   0F98 F8 17              3194 	LDA	HL,23(SP)
   0F9A 7B                 3195 	LD	A,E
   0F9B 22                 3196 	LD	(HL+),A
   0F9C 72                 3197 	LD	(HL),D
   0F9D 1A                 3198 	LD	A,(DE)
   0F9E 4F                 3199 	LD	C,A
   0F9F 3E 0F              3200 	LD	A,#<15
   0FA1 A1                 3201 	AND	C
   0FA2 4F                 3202 	LD	C,A
   0FA3 F8 22              3203 	LDA	HL,34(SP)
   0FA5 2A                 3204 	LD	A,(HL+)
   0FA6 56                 3205 	LD	D,(HL)
   0FA7 5F                 3206 	LD	E,A
   0FA8 3E 0F              3207 	LD	A,#<15
   0FAA A3                 3208 	AND	E
   0FAB 5F                 3209 	LD	E,A
   0FAC CB 23              3210 	SLA	E
   0FAE CB 23              3211 	SLA	E
   0FB0 CB 23              3212 	SLA	E
   0FB2 CB 23              3213 	SLA	E
   0FB4 3E F0              3214 	LD	A,#<240
   0FB6 A3                 3215 	AND	E
   0FB7 5F                 3216 	LD	E,A
   0FB8 B1                 3217 	OR	C
   0FB9 5F                 3218 	LD	E,A
   0FBA F8 17              3219 	LDA	HL,23(SP)
   0FBC 2A                 3220 	LD	A,(HL+)
   0FBD 46                 3221 	LD	B,(HL)
   0FBE 4F                 3222 	LD	C,A
   0FBF 7B                 3223 	LD	A,E
   0FC0 02                 3224 	LD	(BC),A
   0FC1 FA 01 00           3225 	LD	A,(_soundReg+1)
   0FC4 57                 3226 	LD	D,A
   0FC5 FA 00 00           3227 	LD	A,(_soundReg)
   0FC8 5F                 3228 	LD	E,A
   0FC9 21 07 00           3229 	LD	HL,#7
   0FCC 19                 3230 	ADD	HL,DE
   0FCD 54                 3231 	LD	D,H
   0FCE 5D                 3232 	LD	E,L
   0FCF 1A                 3233 	LD	A,(DE)
   0FD0 5F                 3234 	LD	E,A
   0FD1 E0 17              3235 	LDH	(0x17),A
   0FD3 C3 60 19           3236 	JP	.L153
   0FD6                    3237 .L159:
                           3238 ;	soundReg->mode2.envMode = value;
                           3239 ;	NR22_REG = ((UBYTE *)soundReg)[0x07];
                           3240 ;	break;
   0FD6 FA 01 00           3241 	LD	A,(_soundReg+1)
   0FD9 57                 3242 	LD	D,A
   0FDA FA 00 00           3243 	LD	A,(_soundReg)
   0FDD 5F                 3244 	LD	E,A
   0FDE 21 07 00           3245 	LD	HL,#7
   0FE1 19                 3246 	ADD	HL,DE
   0FE2 54                 3247 	LD	D,H
   0FE3 5D                 3248 	LD	E,L
ASxxxx Assembler V01.75  (GameBoy Z80-like CPU), page 59.



   0FE4 F8 15              3249 	LDA	HL,21(SP)
   0FE6 7B                 3250 	LD	A,E
   0FE7 22                 3251 	LD	(HL+),A
   0FE8 72                 3252 	LD	(HL),D
   0FE9 1A                 3253 	LD	A,(DE)
   0FEA 4F                 3254 	LD	C,A
   0FEB 3E F7              3255 	LD	A,#<247
   0FED A1                 3256 	AND	C
   0FEE 4F                 3257 	LD	C,A
   0FEF F8 22              3258 	LDA	HL,34(SP)
   0FF1 2A                 3259 	LD	A,(HL+)
   0FF2 56                 3260 	LD	D,(HL)
   0FF3 5F                 3261 	LD	E,A
   0FF4 3E 01              3262 	LD	A,#<1
   0FF6 A3                 3263 	AND	E
   0FF7 5F                 3264 	LD	E,A
   0FF8 CB 23              3265 	SLA	E
   0FFA CB 23              3266 	SLA	E
   0FFC CB 23              3267 	SLA	E
   0FFE 3E 08              3268 	LD	A,#<8
   1000 A3                 3269 	AND	E
   1001 5F                 3270 	LD	E,A
   1002 B1                 3271 	OR	C
   1003 5F                 3272 	LD	E,A
   1004 F8 15              3273 	LDA	HL,21(SP)
   1006 2A                 3274 	LD	A,(HL+)
   1007 46                 3275 	LD	B,(HL)
   1008 4F                 3276 	LD	C,A
   1009 7B                 3277 	LD	A,E
   100A 02                 3278 	LD	(BC),A
   100B FA 01 00           3279 	LD	A,(_soundReg+1)
   100E 57                 3280 	LD	D,A
   100F FA 00 00           3281 	LD	A,(_soundReg)
   1012 5F                 3282 	LD	E,A
   1013 21 07 00           3283 	LD	HL,#7
   1016 19                 3284 	ADD	HL,DE
   1017 54                 3285 	LD	D,H
   1018 5D                 3286 	LD	E,L
   1019 1A                 3287 	LD	A,(DE)
   101A 5F                 3288 	LD	E,A
   101B E0 17              3289 	LDH	(0x17),A
   101D C3 60 19           3290 	JP	.L153
   1020                    3291 .L160:
                           3292 ;	soundReg->mode2.envNbStep = value;
                           3293 ;	NR22_REG = ((UBYTE *)soundReg)[0x07];
                           3294 ;	break;
   1020 FA 01 00           3295 	LD	A,(_soundReg+1)
   1023 57                 3296 	LD	D,A
   1024 FA 00 00           3297 	LD	A,(_soundReg)
   1027 5F                 3298 	LD	E,A
   1028 21 07 00           3299 	LD	HL,#7
   102B 19                 3300 	ADD	HL,DE
   102C 54                 3301 	LD	D,H
   102D 5D                 3302 	LD	E,L
   102E F8 13              3303 	LDA	HL,19(SP)
   1030 7B                 3304 	LD	A,E
ASxxxx Assembler V01.75  (GameBoy Z80-like CPU), page 60.



   1031 22                 3305 	LD	(HL+),A
   1032 72                 3306 	LD	(HL),D
   1033 1A                 3307 	LD	A,(DE)
   1034 4F                 3308 	LD	C,A
   1035 3E F8              3309 	LD	A,#<248
   1037 A1                 3310 	AND	C
   1038 4F                 3311 	LD	C,A
   1039 F8 22              3312 	LDA	HL,34(SP)
   103B 2A                 3313 	LD	A,(HL+)
   103C 56                 3314 	LD	D,(HL)
   103D 5F                 3315 	LD	E,A
   103E 3E 07              3316 	LD	A,#<7
   1040 A3                 3317 	AND	E
   1041 5F                 3318 	LD	E,A
   1042 3E 07              3319 	LD	A,#<7
   1044 A3                 3320 	AND	E
   1045 5F                 3321 	LD	E,A
   1046 B1                 3322 	OR	C
   1047 5F                 3323 	LD	E,A
   1048 F8 13              3324 	LDA	HL,19(SP)
   104A 2A                 3325 	LD	A,(HL+)
   104B 46                 3326 	LD	B,(HL)
   104C 4F                 3327 	LD	C,A
   104D 7B                 3328 	LD	A,E
   104E 02                 3329 	LD	(BC),A
   104F FA 01 00           3330 	LD	A,(_soundReg+1)
   1052 57                 3331 	LD	D,A
   1053 FA 00 00           3332 	LD	A,(_soundReg)
   1056 5F                 3333 	LD	E,A
   1057 21 07 00           3334 	LD	HL,#7
   105A 19                 3335 	ADD	HL,DE
   105B 54                 3336 	LD	D,H
   105C 5D                 3337 	LD	E,L
   105D 1A                 3338 	LD	A,(DE)
   105E 5F                 3339 	LD	E,A
   105F E0 17              3340 	LDH	(0x17),A
   1061 C3 60 19           3341 	JP	.L153
   1064                    3342 .L161:
                           3343 ;	soundReg->mode2.frequencyHigh = value >> 8;
                           3344 ;	soundReg->mode2.frequencyLow  = value;
                           3345 ;	NR23_REG = ((UBYTE *)soundReg)[0x08];
                           3346 ;	NR24_REG = ((UBYTE *)soundReg)[0x09];
                           3347 ;	break;
   1064 FA 01 00           3348 	LD	A,(_soundReg+1)
   1067 57                 3349 	LD	D,A
   1068 FA 00 00           3350 	LD	A,(_soundReg)
   106B 5F                 3351 	LD	E,A
   106C 21 09 00           3352 	LD	HL,#9
   106F 19                 3353 	ADD	HL,DE
   1070 54                 3354 	LD	D,H
   1071 5D                 3355 	LD	E,L
   1072 F8 11              3356 	LDA	HL,17(SP)
   1074 7B                 3357 	LD	A,E
   1075 22                 3358 	LD	(HL+),A
   1076 72                 3359 	LD	(HL),D
   1077 1A                 3360 	LD	A,(DE)
ASxxxx Assembler V01.75  (GameBoy Z80-like CPU), page 61.



   1078 4F                 3361 	LD	C,A
   1079 3E F8              3362 	LD	A,#<248
   107B A1                 3363 	AND	C
   107C 4F                 3364 	LD	C,A
   107D F8 22              3365 	LDA	HL,34(SP)
   107F 2A                 3366 	LD	A,(HL+)
   1080 56                 3367 	LD	D,(HL)
   1081 5F                 3368 	LD	E,A
   1082 7A                 3369 	LD	A,D
   1083 5F                 3370 	LD	E,A
   1084 AF                 3371 	XOR	A
   1085 57                 3372 	LD	D,A
   1086 3E 07              3373 	LD	A,#<7
   1088 A3                 3374 	AND	E
   1089 5F                 3375 	LD	E,A
   108A 3E 07              3376 	LD	A,#<7
   108C A3                 3377 	AND	E
   108D 5F                 3378 	LD	E,A
   108E B1                 3379 	OR	C
   108F 5F                 3380 	LD	E,A
   1090 F8 11              3381 	LDA	HL,17(SP)
   1092 2A                 3382 	LD	A,(HL+)
   1093 46                 3383 	LD	B,(HL)
   1094 4F                 3384 	LD	C,A
   1095 7B                 3385 	LD	A,E
   1096 02                 3386 	LD	(BC),A
   1097 FA 01 00           3387 	LD	A,(_soundReg+1)
   109A 57                 3388 	LD	D,A
   109B FA 00 00           3389 	LD	A,(_soundReg)
   109E 5F                 3390 	LD	E,A
   109F 21 08 00           3391 	LD	HL,#8
   10A2 19                 3392 	ADD	HL,DE
   10A3 54                 3393 	LD	D,H
   10A4 5D                 3394 	LD	E,L
   10A5 F8 22              3395 	LDA	HL,34(SP)
   10A7 2A                 3396 	LD	A,(HL+)
   10A8 46                 3397 	LD	B,(HL)
   10A9 4F                 3398 	LD	C,A
   10AA 12                 3399 	LD	(DE),A
   10AB FA 01 00           3400 	LD	A,(_soundReg+1)
   10AE 57                 3401 	LD	D,A
   10AF FA 00 00           3402 	LD	A,(_soundReg)
   10B2 5F                 3403 	LD	E,A
   10B3 21 08 00           3404 	LD	HL,#8
   10B6 19                 3405 	ADD	HL,DE
   10B7 54                 3406 	LD	D,H
   10B8 5D                 3407 	LD	E,L
   10B9 1A                 3408 	LD	A,(DE)
   10BA 5F                 3409 	LD	E,A
   10BB E0 18              3410 	LDH	(0x18),A
   10BD FA 01 00           3411 	LD	A,(_soundReg+1)
   10C0 57                 3412 	LD	D,A
   10C1 FA 00 00           3413 	LD	A,(_soundReg)
   10C4 5F                 3414 	LD	E,A
   10C5 21 09 00           3415 	LD	HL,#9
   10C8 19                 3416 	ADD	HL,DE
ASxxxx Assembler V01.75  (GameBoy Z80-like CPU), page 62.



   10C9 54                 3417 	LD	D,H
   10CA 5D                 3418 	LD	E,L
   10CB 1A                 3419 	LD	A,(DE)
   10CC 5F                 3420 	LD	E,A
   10CD E0 19              3421 	LDH	(0x19),A
   10CF C3 60 19           3422 	JP	.L153
   10D2                    3423 .L162:
                           3424 ;	soundReg->mode2.counter_ConsSel = value;
                           3425 ;	NR24_REG = ((UBYTE *)soundReg)[0x09];
                           3426 ;	break;
   10D2 FA 01 00           3427 	LD	A,(_soundReg+1)
   10D5 57                 3428 	LD	D,A
   10D6 FA 00 00           3429 	LD	A,(_soundReg)
   10D9 5F                 3430 	LD	E,A
   10DA 21 09 00           3431 	LD	HL,#9
   10DD 19                 3432 	ADD	HL,DE
   10DE 54                 3433 	LD	D,H
   10DF 5D                 3434 	LD	E,L
   10E0 F8 0F              3435 	LDA	HL,15(SP)
   10E2 7B                 3436 	LD	A,E
   10E3 22                 3437 	LD	(HL+),A
   10E4 72                 3438 	LD	(HL),D
   10E5 1A                 3439 	LD	A,(DE)
   10E6 4F                 3440 	LD	C,A
   10E7 3E BF              3441 	LD	A,#<191
   10E9 A1                 3442 	AND	C
   10EA 4F                 3443 	LD	C,A
   10EB F8 22              3444 	LDA	HL,34(SP)
   10ED 2A                 3445 	LD	A,(HL+)
   10EE 56                 3446 	LD	D,(HL)
   10EF 5F                 3447 	LD	E,A
   10F0 3E 01              3448 	LD	A,#<1
   10F2 A3                 3449 	AND	E
   10F3 5F                 3450 	LD	E,A
   10F4 CB 23              3451 	SLA	E
   10F6 CB 23              3452 	SLA	E
   10F8 CB 23              3453 	SLA	E
   10FA CB 23              3454 	SLA	E
   10FC CB 23              3455 	SLA	E
   10FE CB 23              3456 	SLA	E
   1100 3E 40              3457 	LD	A,#<64
   1102 A3                 3458 	AND	E
   1103 5F                 3459 	LD	E,A
   1104 B1                 3460 	OR	C
   1105 5F                 3461 	LD	E,A
   1106 F8 0F              3462 	LDA	HL,15(SP)
   1108 2A                 3463 	LD	A,(HL+)
   1109 46                 3464 	LD	B,(HL)
   110A 4F                 3465 	LD	C,A
   110B 7B                 3466 	LD	A,E
   110C 02                 3467 	LD	(BC),A
   110D FA 01 00           3468 	LD	A,(_soundReg+1)
   1110 57                 3469 	LD	D,A
   1111 FA 00 00           3470 	LD	A,(_soundReg)
   1114 5F                 3471 	LD	E,A
   1115 21 09 00           3472 	LD	HL,#9
ASxxxx Assembler V01.75  (GameBoy Z80-like CPU), page 63.



   1118 19                 3473 	ADD	HL,DE
   1119 54                 3474 	LD	D,H
   111A 5D                 3475 	LD	E,L
   111B 1A                 3476 	LD	A,(DE)
   111C 5F                 3477 	LD	E,A
   111D E0 19              3478 	LDH	(0x19),A
   111F C3 60 19           3479 	JP	.L153
   1122                    3480 .L163:
                           3481 ;	soundReg->control.Sound2_To_SO1 = value;
                           3482 ;	NR51_REG = ((UBYTE *)soundReg)[0x15];
                           3483 ;	break;
   1122 FA 01 00           3484 	LD	A,(_soundReg+1)
   1125 57                 3485 	LD	D,A
   1126 FA 00 00           3486 	LD	A,(_soundReg)
   1129 5F                 3487 	LD	E,A
   112A 21 15 00           3488 	LD	HL,#21
   112D 19                 3489 	ADD	HL,DE
   112E 54                 3490 	LD	D,H
   112F 5D                 3491 	LD	E,L
   1130 F8 0D              3492 	LDA	HL,13(SP)
   1132 7B                 3493 	LD	A,E
   1133 22                 3494 	LD	(HL+),A
   1134 72                 3495 	LD	(HL),D
   1135 1A                 3496 	LD	A,(DE)
   1136 4F                 3497 	LD	C,A
   1137 3E FD              3498 	LD	A,#<253
   1139 A1                 3499 	AND	C
   113A 4F                 3500 	LD	C,A
   113B F8 22              3501 	LDA	HL,34(SP)
   113D 2A                 3502 	LD	A,(HL+)
   113E 56                 3503 	LD	D,(HL)
   113F 5F                 3504 	LD	E,A
   1140 3E 01              3505 	LD	A,#<1
   1142 A3                 3506 	AND	E
   1143 5F                 3507 	LD	E,A
   1144 CB 23              3508 	SLA	E
   1146 3E 02              3509 	LD	A,#<2
   1148 A3                 3510 	AND	E
   1149 5F                 3511 	LD	E,A
   114A B1                 3512 	OR	C
   114B 5F                 3513 	LD	E,A
   114C F8 0D              3514 	LDA	HL,13(SP)
   114E 2A                 3515 	LD	A,(HL+)
   114F 46                 3516 	LD	B,(HL)
   1150 4F                 3517 	LD	C,A
   1151 7B                 3518 	LD	A,E
   1152 02                 3519 	LD	(BC),A
   1153 FA 01 00           3520 	LD	A,(_soundReg+1)
   1156 57                 3521 	LD	D,A
   1157 FA 00 00           3522 	LD	A,(_soundReg)
   115A 5F                 3523 	LD	E,A
   115B 21 15 00           3524 	LD	HL,#21
   115E 19                 3525 	ADD	HL,DE
   115F 54                 3526 	LD	D,H
   1160 5D                 3527 	LD	E,L
   1161 1A                 3528 	LD	A,(DE)
ASxxxx Assembler V01.75  (GameBoy Z80-like CPU), page 64.



   1162 5F                 3529 	LD	E,A
   1163 E0 25              3530 	LDH	(0x25),A
   1165 C3 60 19           3531 	JP	.L153
   1168                    3532 .L164:
                           3533 ;	soundReg->control.Sound2_To_SO2 = value;
                           3534 ;	NR51_REG = ((UBYTE *)soundReg)[0x15];
                           3535 ;	break;
   1168 FA 01 00           3536 	LD	A,(_soundReg+1)
   116B 57                 3537 	LD	D,A
   116C FA 00 00           3538 	LD	A,(_soundReg)
   116F 5F                 3539 	LD	E,A
   1170 21 15 00           3540 	LD	HL,#21
   1173 19                 3541 	ADD	HL,DE
   1174 54                 3542 	LD	D,H
   1175 5D                 3543 	LD	E,L
   1176 F8 0B              3544 	LDA	HL,11(SP)
   1178 7B                 3545 	LD	A,E
   1179 22                 3546 	LD	(HL+),A
   117A 72                 3547 	LD	(HL),D
   117B 1A                 3548 	LD	A,(DE)
   117C 4F                 3549 	LD	C,A
   117D 3E DF              3550 	LD	A,#<223
   117F A1                 3551 	AND	C
   1180 4F                 3552 	LD	C,A
   1181 F8 22              3553 	LDA	HL,34(SP)
   1183 2A                 3554 	LD	A,(HL+)
   1184 56                 3555 	LD	D,(HL)
   1185 5F                 3556 	LD	E,A
   1186 3E 01              3557 	LD	A,#<1
   1188 A3                 3558 	AND	E
   1189 5F                 3559 	LD	E,A
   118A CB 23              3560 	SLA	E
   118C CB 23              3561 	SLA	E
   118E CB 23              3562 	SLA	E
   1190 CB 23              3563 	SLA	E
   1192 CB 23              3564 	SLA	E
   1194 3E 20              3565 	LD	A,#<32
   1196 A3                 3566 	AND	E
   1197 5F                 3567 	LD	E,A
   1198 B1                 3568 	OR	C
   1199 5F                 3569 	LD	E,A
   119A F8 0B              3570 	LDA	HL,11(SP)
   119C 2A                 3571 	LD	A,(HL+)
   119D 46                 3572 	LD	B,(HL)
   119E 4F                 3573 	LD	C,A
   119F 7B                 3574 	LD	A,E
   11A0 02                 3575 	LD	(BC),A
   11A1 FA 01 00           3576 	LD	A,(_soundReg+1)
   11A4 57                 3577 	LD	D,A
   11A5 FA 00 00           3578 	LD	A,(_soundReg)
   11A8 5F                 3579 	LD	E,A
   11A9 21 15 00           3580 	LD	HL,#21
   11AC 19                 3581 	ADD	HL,DE
   11AD 54                 3582 	LD	D,H
   11AE 5D                 3583 	LD	E,L
   11AF 1A                 3584 	LD	A,(DE)
ASxxxx Assembler V01.75  (GameBoy Z80-like CPU), page 65.



   11B0 5F                 3585 	LD	E,A
   11B1 E0 25              3586 	LDH	(0x25),A
   11B3 C3 60 19           3587 	JP	.L153
   11B6                    3588 .L165:
                           3589 ;	soundReg->control.Sound2_On_Off = value;
                           3590 ;	NR52_REG = ((UBYTE *)soundReg)[0x16];
                           3591 ;	break;
   11B6 FA 01 00           3592 	LD	A,(_soundReg+1)
   11B9 57                 3593 	LD	D,A
   11BA FA 00 00           3594 	LD	A,(_soundReg)
   11BD 5F                 3595 	LD	E,A
   11BE 21 16 00           3596 	LD	HL,#22
   11C1 19                 3597 	ADD	HL,DE
   11C2 54                 3598 	LD	D,H
   11C3 5D                 3599 	LD	E,L
   11C4 F8 09              3600 	LDA	HL,9(SP)
   11C6 7B                 3601 	LD	A,E
   11C7 22                 3602 	LD	(HL+),A
   11C8 72                 3603 	LD	(HL),D
   11C9 1A                 3604 	LD	A,(DE)
   11CA 4F                 3605 	LD	C,A
   11CB 3E FD              3606 	LD	A,#<253
   11CD A1                 3607 	AND	C
   11CE 4F                 3608 	LD	C,A
   11CF F8 22              3609 	LDA	HL,34(SP)
   11D1 2A                 3610 	LD	A,(HL+)
   11D2 56                 3611 	LD	D,(HL)
   11D3 5F                 3612 	LD	E,A
   11D4 3E 01              3613 	LD	A,#<1
   11D6 A3                 3614 	AND	E
   11D7 5F                 3615 	LD	E,A
   11D8 CB 23              3616 	SLA	E
   11DA 3E 02              3617 	LD	A,#<2
   11DC A3                 3618 	AND	E
   11DD 5F                 3619 	LD	E,A
   11DE B1                 3620 	OR	C
   11DF 5F                 3621 	LD	E,A
   11E0 F8 09              3622 	LDA	HL,9(SP)
   11E2 2A                 3623 	LD	A,(HL+)
   11E3 46                 3624 	LD	B,(HL)
   11E4 4F                 3625 	LD	C,A
   11E5 7B                 3626 	LD	A,E
   11E6 02                 3627 	LD	(BC),A
   11E7 FA 01 00           3628 	LD	A,(_soundReg+1)
   11EA 57                 3629 	LD	D,A
   11EB FA 00 00           3630 	LD	A,(_soundReg)
   11EE 5F                 3631 	LD	E,A
   11EF 21 16 00           3632 	LD	HL,#22
   11F2 19                 3633 	ADD	HL,DE
   11F3 54                 3634 	LD	D,H
   11F4 5D                 3635 	LD	E,L
   11F5 1A                 3636 	LD	A,(DE)
   11F6 5F                 3637 	LD	E,A
   11F7 E0 26              3638 	LDH	(0x26),A
   11F9 C3 60 19           3639 	JP	.L153
   11FC                    3640 .L166:
ASxxxx Assembler V01.75  (GameBoy Z80-like CPU), page 66.



                           3641 ;	update_value(mode, FREQUENCY, current_value(mode, FREQUENCY));
                           3642 ;	soundReg->mode2.restart = value;
                           3643 ;	NR24_REG = ((UBYTE *)soundReg)[0x09];
                           3644 ;	soundReg->mode2.restart = 0;
                           3645 ;	break;
                           3646 ;  } else if(mode == 3) {
   11FC 3E 21              3647 	LD	A,#<33
   11FE F5                 3648 	PUSH	AF
   11FF 33                 3649 	INC	SP
   1200 F8 21              3650 	LDA	HL,33(SP)
   1202 7E                 3651 	LD	A,(HL)
   1203 F5                 3652 	PUSH	AF
   1204 33                 3653 	INC	SP
   1205 CD 00 00           3654 	CALL	_current_value
   1208 E8 02              3655 	LDA	SP,2(SP)
   120A D5                 3656 	PUSH	DE
   120B 3E 21              3657 	LD	A,#<33
   120D F5                 3658 	PUSH	AF
   120E 33                 3659 	INC	SP
   120F F8 23              3660 	LDA	HL,35(SP)
   1211 7E                 3661 	LD	A,(HL)
   1212 F5                 3662 	PUSH	AF
   1213 33                 3663 	INC	SP
   1214 CD AA 06           3664 	CALL	_update_value
   1217 E8 04              3665 	LDA	SP,4(SP)
   1219 FA 01 00           3666 	LD	A,(_soundReg+1)
   121C 57                 3667 	LD	D,A
   121D FA 00 00           3668 	LD	A,(_soundReg)
   1220 5F                 3669 	LD	E,A
   1221 21 09 00           3670 	LD	HL,#9
   1224 19                 3671 	ADD	HL,DE
   1225 54                 3672 	LD	D,H
   1226 5D                 3673 	LD	E,L
   1227 F8 07              3674 	LDA	HL,7(SP)
   1229 7B                 3675 	LD	A,E
   122A 22                 3676 	LD	(HL+),A
   122B 72                 3677 	LD	(HL),D
   122C 1A                 3678 	LD	A,(DE)
   122D 4F                 3679 	LD	C,A
   122E 3E 7F              3680 	LD	A,#<127
   1230 A1                 3681 	AND	C
   1231 4F                 3682 	LD	C,A
   1232 F8 22              3683 	LDA	HL,34(SP)
   1234 2A                 3684 	LD	A,(HL+)
   1235 56                 3685 	LD	D,(HL)
   1236 5F                 3686 	LD	E,A
   1237 3E 01              3687 	LD	A,#<1
   1239 A3                 3688 	AND	E
   123A 5F                 3689 	LD	E,A
   123B CB 23              3690 	SLA	E
   123D CB 23              3691 	SLA	E
   123F CB 23              3692 	SLA	E
   1241 CB 23              3693 	SLA	E
   1243 CB 23              3694 	SLA	E
   1245 CB 23              3695 	SLA	E
   1247 CB 23              3696 	SLA	E
ASxxxx Assembler V01.75  (GameBoy Z80-like CPU), page 67.



   1249 3E 80              3697 	LD	A,#<128
   124B A3                 3698 	AND	E
   124C 5F                 3699 	LD	E,A
   124D B1                 3700 	OR	C
   124E 5F                 3701 	LD	E,A
   124F F8 07              3702 	LDA	HL,7(SP)
   1251 2A                 3703 	LD	A,(HL+)
   1252 46                 3704 	LD	B,(HL)
   1253 4F                 3705 	LD	C,A
   1254 7B                 3706 	LD	A,E
   1255 02                 3707 	LD	(BC),A
   1256 FA 01 00           3708 	LD	A,(_soundReg+1)
   1259 57                 3709 	LD	D,A
   125A FA 00 00           3710 	LD	A,(_soundReg)
   125D 5F                 3711 	LD	E,A
   125E 21 09 00           3712 	LD	HL,#9
   1261 19                 3713 	ADD	HL,DE
   1262 54                 3714 	LD	D,H
   1263 5D                 3715 	LD	E,L
   1264 1A                 3716 	LD	A,(DE)
   1265 5F                 3717 	LD	E,A
   1266 E0 19              3718 	LDH	(0x19),A
   1268 FA 01 00           3719 	LD	A,(_soundReg+1)
   126B 57                 3720 	LD	D,A
   126C FA 00 00           3721 	LD	A,(_soundReg)
   126F 5F                 3722 	LD	E,A
   1270 21 09 00           3723 	LD	HL,#9
   1273 19                 3724 	ADD	HL,DE
   1274 54                 3725 	LD	D,H
   1275 5D                 3726 	LD	E,L
   1276 1A                 3727 	LD	A,(DE)
   1277 E6 7F              3728 	AND	#<127
   1279 12                 3729 	LD	(DE),A
   127A C3 60 19           3730 	JP	.L153
   127D                    3731 .L152:
                           3732 ;    switch(line)
   127D F8 20              3733 	LDA	HL,32(SP)
   127F 3E 03              3734 	LD	A,#<3
   1281 BE                 3735 	CP	(HL)
   1282 C2 9E 15           3736 	JP	NZ,.L169
   1285 F8 21              3737 	LDA	HL,33(SP)
   1287 5E                 3738 	LD	E,(HL)
   1288 7B                 3739 	LD	A,E
   1289 C6 80              3740 	ADD	#0x80
   128B FE 87              3741 	CP	#<135
   128D 28 03              3742 	JR	Z,.L205
   128F D2 A4 12           3743 	JP	NC,.L182
   1292                    3744 .L205:
   1292 7B                 3745 	LD	A,E
   1293 07                 3746 	RLCA
   1294 9F                 3747 	SBC	A
   1295 57                 3748 	LD	D,A
   1296 CB 23              3749 	SLA	E
   1298 CB 12              3750 	RL	D
   129A 21 96 00           3751 	LD	HL,#.L183
   129D 19                 3752 	ADD	HL,DE
ASxxxx Assembler V01.75  (GameBoy Z80-like CPU), page 68.



   129E 54                 3753 	LD	D,H
   129F 5D                 3754 	LD	E,L
   12A0 2A                 3755 	LD	A,(HL+)
   12A1 66                 3756 	LD	H,(HL)
   12A2 6F                 3757 	LD	L,A
   12A3 E9                 3758 	JP	(HL)
                           3759 	;; _CODE ends
                           3760 	.area	_LIT
   0096                    3761 .L183:
   0096 B6 12              3762 	.dw	.L173
   0098 08 13              3763 	.dw	.L174
   009A 31 13              3764 	.dw	.L175
   009C 7F 13              3765 	.dw	.L176
   009E ED 13              3766 	.dw	.L177
   00A0 3D 14              3767 	.dw	.L178
   00A2 85 14              3768 	.dw	.L179
   00A4 D5 14              3769 	.dw	.L180
                           3770 	;; _LIT ends
                           3771 	.area	_CODE
   12A4                    3772 .L182:
                           3773 ;      {
   12A4 F8 21              3774 	LDA	HL,33(SP)
   12A6 5E                 3775 	LD	E,(HL)
   12A7 7B                 3776 	LD	A,E
   12A8 FE 20              3777 	CP	#<32
   12AA CA 1D 15           3778 	JP	Z,.L181
   12AD 7B                 3779 	LD	A,E
   12AE FE 21              3780 	CP	#<33
   12B0 CA 7F 13           3781 	JP	Z,.L176
   12B3 C3 60 19           3782 	JP	.L170
   12B6                    3783 .L173:
                           3784 ;	soundReg->mode3.on_Off = value;
                           3785 ;	NR30_REG = ((UBYTE *)soundReg)[0x0A];
                           3786 ;	break;
   12B6 FA 01 00           3787 	LD	A,(_soundReg+1)
   12B9 57                 3788 	LD	D,A
   12BA FA 00 00           3789 	LD	A,(_soundReg)
   12BD 5F                 3790 	LD	E,A
   12BE 21 0A 00           3791 	LD	HL,#10
   12C1 19                 3792 	ADD	HL,DE
   12C2 54                 3793 	LD	D,H
   12C3 5D                 3794 	LD	E,L
   12C4 F8 1C              3795 	LDA	HL,28(SP)
   12C6 7B                 3796 	LD	A,E
   12C7 22                 3797 	LD	(HL+),A
   12C8 72                 3798 	LD	(HL),D
   12C9 1A                 3799 	LD	A,(DE)
   12CA 4F                 3800 	LD	C,A
   12CB 3E 7F              3801 	LD	A,#<127
   12CD A1                 3802 	AND	C
   12CE 4F                 3803 	LD	C,A
   12CF F8 22              3804 	LDA	HL,34(SP)
   12D1 2A                 3805 	LD	A,(HL+)
   12D2 56                 3806 	LD	D,(HL)
   12D3 5F                 3807 	LD	E,A
   12D4 3E 01              3808 	LD	A,#<1
ASxxxx Assembler V01.75  (GameBoy Z80-like CPU), page 69.



   12D6 A3                 3809 	AND	E
   12D7 5F                 3810 	LD	E,A
   12D8 CB 23              3811 	SLA	E
   12DA CB 23              3812 	SLA	E
   12DC CB 23              3813 	SLA	E
   12DE CB 23              3814 	SLA	E
   12E0 CB 23              3815 	SLA	E
   12E2 CB 23              3816 	SLA	E
   12E4 CB 23              3817 	SLA	E
   12E6 3E 80              3818 	LD	A,#<128
   12E8 A3                 3819 	AND	E
   12E9 5F                 3820 	LD	E,A
   12EA B1                 3821 	OR	C
   12EB 5F                 3822 	LD	E,A
   12EC F8 1C              3823 	LDA	HL,28(SP)
   12EE 2A                 3824 	LD	A,(HL+)
   12EF 46                 3825 	LD	B,(HL)
   12F0 4F                 3826 	LD	C,A
   12F1 7B                 3827 	LD	A,E
   12F2 02                 3828 	LD	(BC),A
   12F3 FA 01 00           3829 	LD	A,(_soundReg+1)
   12F6 57                 3830 	LD	D,A
   12F7 FA 00 00           3831 	LD	A,(_soundReg)
   12FA 5F                 3832 	LD	E,A
   12FB 21 0A 00           3833 	LD	HL,#10
   12FE 19                 3834 	ADD	HL,DE
   12FF 54                 3835 	LD	D,H
   1300 5D                 3836 	LD	E,L
   1301 1A                 3837 	LD	A,(DE)
   1302 5F                 3838 	LD	E,A
   1303 E0 1A              3839 	LDH	(0x1A),A
   1305 C3 60 19           3840 	JP	.L170
   1308                    3841 .L174:
                           3842 ;	soundReg->mode3.soundLength = value;
                           3843 ;	NR31_REG = ((UBYTE *)soundReg)[0x0B];
                           3844 ;	break;
   1308 FA 01 00           3845 	LD	A,(_soundReg+1)
   130B 57                 3846 	LD	D,A
   130C FA 00 00           3847 	LD	A,(_soundReg)
   130F 5F                 3848 	LD	E,A
   1310 21 0B 00           3849 	LD	HL,#11
   1313 19                 3850 	ADD	HL,DE
   1314 54                 3851 	LD	D,H
   1315 5D                 3852 	LD	E,L
   1316 F8 22              3853 	LDA	HL,34(SP)
   1318 2A                 3854 	LD	A,(HL+)
   1319 46                 3855 	LD	B,(HL)
   131A 4F                 3856 	LD	C,A
   131B 12                 3857 	LD	(DE),A
   131C FA 01 00           3858 	LD	A,(_soundReg+1)
   131F 57                 3859 	LD	D,A
   1320 FA 00 00           3860 	LD	A,(_soundReg)
   1323 5F                 3861 	LD	E,A
   1324 21 0B 00           3862 	LD	HL,#11
   1327 19                 3863 	ADD	HL,DE
   1328 54                 3864 	LD	D,H
ASxxxx Assembler V01.75  (GameBoy Z80-like CPU), page 70.



   1329 5D                 3865 	LD	E,L
   132A 1A                 3866 	LD	A,(DE)
   132B 5F                 3867 	LD	E,A
   132C E0 1B              3868 	LDH	(0x1B),A
   132E C3 60 19           3869 	JP	.L170
   1331                    3870 .L175:
                           3871 ;	soundReg->mode3.selOutputLevel = value;
                           3872 ;	NR32_REG = ((UBYTE *)soundReg)[0x0C];
                           3873 ;	break;
   1331 FA 01 00           3874 	LD	A,(_soundReg+1)
   1334 57                 3875 	LD	D,A
   1335 FA 00 00           3876 	LD	A,(_soundReg)
   1338 5F                 3877 	LD	E,A
   1339 21 0C 00           3878 	LD	HL,#12
   133C 19                 3879 	ADD	HL,DE
   133D 54                 3880 	LD	D,H
   133E 5D                 3881 	LD	E,L
   133F F8 1A              3882 	LDA	HL,26(SP)
   1341 7B                 3883 	LD	A,E
   1342 22                 3884 	LD	(HL+),A
   1343 72                 3885 	LD	(HL),D
   1344 1A                 3886 	LD	A,(DE)
   1345 4F                 3887 	LD	C,A
   1346 3E 9F              3888 	LD	A,#<159
   1348 A1                 3889 	AND	C
   1349 4F                 3890 	LD	C,A
   134A F8 22              3891 	LDA	HL,34(SP)
   134C 2A                 3892 	LD	A,(HL+)
   134D 56                 3893 	LD	D,(HL)
   134E 5F                 3894 	LD	E,A
   134F 3E 03              3895 	LD	A,#<3
   1351 A3                 3896 	AND	E
   1352 5F                 3897 	LD	E,A
   1353 CB 23              3898 	SLA	E
   1355 CB 23              3899 	SLA	E
   1357 CB 23              3900 	SLA	E
   1359 CB 23              3901 	SLA	E
   135B CB 23              3902 	SLA	E
   135D 3E 60              3903 	LD	A,#<96
   135F A3                 3904 	AND	E
   1360 5F                 3905 	LD	E,A
   1361 B1                 3906 	OR	C
   1362 5F                 3907 	LD	E,A
   1363 F8 1A              3908 	LDA	HL,26(SP)
   1365 2A                 3909 	LD	A,(HL+)
   1366 46                 3910 	LD	B,(HL)
   1367 4F                 3911 	LD	C,A
   1368 7B                 3912 	LD	A,E
   1369 02                 3913 	LD	(BC),A
   136A FA 01 00           3914 	LD	A,(_soundReg+1)
   136D 57                 3915 	LD	D,A
   136E FA 00 00           3916 	LD	A,(_soundReg)
   1371 5F                 3917 	LD	E,A
   1372 21 0C 00           3918 	LD	HL,#12
   1375 19                 3919 	ADD	HL,DE
   1376 54                 3920 	LD	D,H
ASxxxx Assembler V01.75  (GameBoy Z80-like CPU), page 71.



   1377 5D                 3921 	LD	E,L
   1378 1A                 3922 	LD	A,(DE)
   1379 5F                 3923 	LD	E,A
   137A E0 1C              3924 	LDH	(0x1C),A
   137C C3 60 19           3925 	JP	.L170
   137F                    3926 .L176:
                           3927 ;	soundReg->mode3.frequencyHigh = value >> 8;
                           3928 ;	soundReg->mode3.frequencyLow  = value;
                           3929 ;	NR33_REG = ((UBYTE *)soundReg)[0x0D];
                           3930 ;	NR34_REG = ((UBYTE *)soundReg)[0x0E];
                           3931 ;	break;
   137F FA 01 00           3932 	LD	A,(_soundReg+1)
   1382 57                 3933 	LD	D,A
   1383 FA 00 00           3934 	LD	A,(_soundReg)
   1386 5F                 3935 	LD	E,A
   1387 21 0E 00           3936 	LD	HL,#14
   138A 19                 3937 	ADD	HL,DE
   138B 54                 3938 	LD	D,H
   138C 5D                 3939 	LD	E,L
   138D F8 18              3940 	LDA	HL,24(SP)
   138F 7B                 3941 	LD	A,E
   1390 22                 3942 	LD	(HL+),A
   1391 72                 3943 	LD	(HL),D
   1392 1A                 3944 	LD	A,(DE)
   1393 4F                 3945 	LD	C,A
   1394 3E F8              3946 	LD	A,#<248
   1396 A1                 3947 	AND	C
   1397 4F                 3948 	LD	C,A
   1398 F8 22              3949 	LDA	HL,34(SP)
   139A 2A                 3950 	LD	A,(HL+)
   139B 56                 3951 	LD	D,(HL)
   139C 5F                 3952 	LD	E,A
   139D 7A                 3953 	LD	A,D
   139E 5F                 3954 	LD	E,A
   139F AF                 3955 	XOR	A
   13A0 57                 3956 	LD	D,A
   13A1 3E 07              3957 	LD	A,#<7
   13A3 A3                 3958 	AND	E
   13A4 5F                 3959 	LD	E,A
   13A5 3E 07              3960 	LD	A,#<7
   13A7 A3                 3961 	AND	E
   13A8 5F                 3962 	LD	E,A
   13A9 B1                 3963 	OR	C
   13AA 5F                 3964 	LD	E,A
   13AB F8 18              3965 	LDA	HL,24(SP)
   13AD 2A                 3966 	LD	A,(HL+)
   13AE 46                 3967 	LD	B,(HL)
   13AF 4F                 3968 	LD	C,A
   13B0 7B                 3969 	LD	A,E
   13B1 02                 3970 	LD	(BC),A
   13B2 FA 01 00           3971 	LD	A,(_soundReg+1)
   13B5 57                 3972 	LD	D,A
   13B6 FA 00 00           3973 	LD	A,(_soundReg)
   13B9 5F                 3974 	LD	E,A
   13BA 21 0D 00           3975 	LD	HL,#13
   13BD 19                 3976 	ADD	HL,DE
ASxxxx Assembler V01.75  (GameBoy Z80-like CPU), page 72.



   13BE 54                 3977 	LD	D,H
   13BF 5D                 3978 	LD	E,L
   13C0 F8 22              3979 	LDA	HL,34(SP)
   13C2 2A                 3980 	LD	A,(HL+)
   13C3 46                 3981 	LD	B,(HL)
   13C4 4F                 3982 	LD	C,A
   13C5 12                 3983 	LD	(DE),A
   13C6 FA 01 00           3984 	LD	A,(_soundReg+1)
   13C9 57                 3985 	LD	D,A
   13CA FA 00 00           3986 	LD	A,(_soundReg)
   13CD 5F                 3987 	LD	E,A
   13CE 21 0D 00           3988 	LD	HL,#13
   13D1 19                 3989 	ADD	HL,DE
   13D2 54                 3990 	LD	D,H
   13D3 5D                 3991 	LD	E,L
   13D4 1A                 3992 	LD	A,(DE)
   13D5 5F                 3993 	LD	E,A
   13D6 E0 1D              3994 	LDH	(0x1D),A
   13D8 FA 01 00           3995 	LD	A,(_soundReg+1)
   13DB 57                 3996 	LD	D,A
   13DC FA 00 00           3997 	LD	A,(_soundReg)
   13DF 5F                 3998 	LD	E,A
   13E0 21 0E 00           3999 	LD	HL,#14
   13E3 19                 4000 	ADD	HL,DE
   13E4 54                 4001 	LD	D,H
   13E5 5D                 4002 	LD	E,L
   13E6 1A                 4003 	LD	A,(DE)
   13E7 5F                 4004 	LD	E,A
   13E8 E0 1E              4005 	LDH	(0x1E),A
   13EA C3 60 19           4006 	JP	.L170
   13ED                    4007 .L177:
                           4008 ;	soundReg->mode3.counter_ConsSel = value;
                           4009 ;	NR34_REG = ((UBYTE *)soundReg)[0x0E];
                           4010 ;	break;
   13ED FA 01 00           4011 	LD	A,(_soundReg+1)
   13F0 57                 4012 	LD	D,A
   13F1 FA 00 00           4013 	LD	A,(_soundReg)
   13F4 5F                 4014 	LD	E,A
   13F5 21 0E 00           4015 	LD	HL,#14
   13F8 19                 4016 	ADD	HL,DE
   13F9 54                 4017 	LD	D,H
   13FA 5D                 4018 	LD	E,L
   13FB F8 16              4019 	LDA	HL,22(SP)
   13FD 7B                 4020 	LD	A,E
   13FE 22                 4021 	LD	(HL+),A
   13FF 72                 4022 	LD	(HL),D
   1400 1A                 4023 	LD	A,(DE)
   1401 4F                 4024 	LD	C,A
   1402 3E BF              4025 	LD	A,#<191
   1404 A1                 4026 	AND	C
   1405 4F                 4027 	LD	C,A
   1406 F8 22              4028 	LDA	HL,34(SP)
   1408 2A                 4029 	LD	A,(HL+)
   1409 56                 4030 	LD	D,(HL)
   140A 5F                 4031 	LD	E,A
   140B 3E 01              4032 	LD	A,#<1
ASxxxx Assembler V01.75  (GameBoy Z80-like CPU), page 73.



   140D A3                 4033 	AND	E
   140E 5F                 4034 	LD	E,A
   140F CB 23              4035 	SLA	E
   1411 CB 23              4036 	SLA	E
   1413 CB 23              4037 	SLA	E
   1415 CB 23              4038 	SLA	E
   1417 CB 23              4039 	SLA	E
   1419 CB 23              4040 	SLA	E
   141B 3E 40              4041 	LD	A,#<64
   141D A3                 4042 	AND	E
   141E 5F                 4043 	LD	E,A
   141F B1                 4044 	OR	C
   1420 5F                 4045 	LD	E,A
   1421 F8 16              4046 	LDA	HL,22(SP)
   1423 2A                 4047 	LD	A,(HL+)
   1424 46                 4048 	LD	B,(HL)
   1425 4F                 4049 	LD	C,A
   1426 7B                 4050 	LD	A,E
   1427 02                 4051 	LD	(BC),A
   1428 FA 01 00           4052 	LD	A,(_soundReg+1)
   142B 57                 4053 	LD	D,A
   142C FA 00 00           4054 	LD	A,(_soundReg)
   142F 5F                 4055 	LD	E,A
   1430 21 0E 00           4056 	LD	HL,#14
   1433 19                 4057 	ADD	HL,DE
   1434 54                 4058 	LD	D,H
   1435 5D                 4059 	LD	E,L
   1436 1A                 4060 	LD	A,(DE)
   1437 5F                 4061 	LD	E,A
   1438 E0 1E              4062 	LDH	(0x1E),A
   143A C3 60 19           4063 	JP	.L170
   143D                    4064 .L178:
                           4065 ;	soundReg->control.Sound3_To_SO1 = value;
                           4066 ;	NR51_REG = ((UBYTE *)soundReg)[0x15];
                           4067 ;	break;
   143D FA 01 00           4068 	LD	A,(_soundReg+1)
   1440 57                 4069 	LD	D,A
   1441 FA 00 00           4070 	LD	A,(_soundReg)
   1444 5F                 4071 	LD	E,A
   1445 21 15 00           4072 	LD	HL,#21
   1448 19                 4073 	ADD	HL,DE
   1449 54                 4074 	LD	D,H
   144A 5D                 4075 	LD	E,L
   144B F8 14              4076 	LDA	HL,20(SP)
   144D 7B                 4077 	LD	A,E
   144E 22                 4078 	LD	(HL+),A
   144F 72                 4079 	LD	(HL),D
   1450 1A                 4080 	LD	A,(DE)
   1451 4F                 4081 	LD	C,A
   1452 3E FB              4082 	LD	A,#<251
   1454 A1                 4083 	AND	C
   1455 4F                 4084 	LD	C,A
   1456 F8 22              4085 	LDA	HL,34(SP)
   1458 2A                 4086 	LD	A,(HL+)
   1459 56                 4087 	LD	D,(HL)
   145A 5F                 4088 	LD	E,A
ASxxxx Assembler V01.75  (GameBoy Z80-like CPU), page 74.



   145B 3E 01              4089 	LD	A,#<1
   145D A3                 4090 	AND	E
   145E 5F                 4091 	LD	E,A
   145F CB 23              4092 	SLA	E
   1461 CB 23              4093 	SLA	E
   1463 3E 04              4094 	LD	A,#<4
   1465 A3                 4095 	AND	E
   1466 5F                 4096 	LD	E,A
   1467 B1                 4097 	OR	C
   1468 5F                 4098 	LD	E,A
   1469 F8 14              4099 	LDA	HL,20(SP)
   146B 2A                 4100 	LD	A,(HL+)
   146C 46                 4101 	LD	B,(HL)
   146D 4F                 4102 	LD	C,A
   146E 7B                 4103 	LD	A,E
   146F 02                 4104 	LD	(BC),A
   1470 FA 01 00           4105 	LD	A,(_soundReg+1)
   1473 57                 4106 	LD	D,A
   1474 FA 00 00           4107 	LD	A,(_soundReg)
   1477 5F                 4108 	LD	E,A
   1478 21 15 00           4109 	LD	HL,#21
   147B 19                 4110 	ADD	HL,DE
   147C 54                 4111 	LD	D,H
   147D 5D                 4112 	LD	E,L
   147E 1A                 4113 	LD	A,(DE)
   147F 5F                 4114 	LD	E,A
   1480 E0 25              4115 	LDH	(0x25),A
   1482 C3 60 19           4116 	JP	.L170
   1485                    4117 .L179:
                           4118 ;	soundReg->control.Sound3_To_SO2 = value;
                           4119 ;	NR51_REG = ((UBYTE *)soundReg)[0x15];
                           4120 ;	break;
   1485 FA 01 00           4121 	LD	A,(_soundReg+1)
   1488 57                 4122 	LD	D,A
   1489 FA 00 00           4123 	LD	A,(_soundReg)
   148C 5F                 4124 	LD	E,A
   148D 21 15 00           4125 	LD	HL,#21
   1490 19                 4126 	ADD	HL,DE
   1491 54                 4127 	LD	D,H
   1492 5D                 4128 	LD	E,L
   1493 F8 12              4129 	LDA	HL,18(SP)
   1495 7B                 4130 	LD	A,E
   1496 22                 4131 	LD	(HL+),A
   1497 72                 4132 	LD	(HL),D
   1498 1A                 4133 	LD	A,(DE)
   1499 4F                 4134 	LD	C,A
   149A 3E BF              4135 	LD	A,#<191
   149C A1                 4136 	AND	C
   149D 4F                 4137 	LD	C,A
   149E F8 22              4138 	LDA	HL,34(SP)
   14A0 2A                 4139 	LD	A,(HL+)
   14A1 56                 4140 	LD	D,(HL)
   14A2 5F                 4141 	LD	E,A
   14A3 3E 01              4142 	LD	A,#<1
   14A5 A3                 4143 	AND	E
   14A6 5F                 4144 	LD	E,A
ASxxxx Assembler V01.75  (GameBoy Z80-like CPU), page 75.



   14A7 CB 23              4145 	SLA	E
   14A9 CB 23              4146 	SLA	E
   14AB CB 23              4147 	SLA	E
   14AD CB 23              4148 	SLA	E
   14AF CB 23              4149 	SLA	E
   14B1 CB 23              4150 	SLA	E
   14B3 3E 40              4151 	LD	A,#<64
   14B5 A3                 4152 	AND	E
   14B6 5F                 4153 	LD	E,A
   14B7 B1                 4154 	OR	C
   14B8 5F                 4155 	LD	E,A
   14B9 F8 12              4156 	LDA	HL,18(SP)
   14BB 2A                 4157 	LD	A,(HL+)
   14BC 46                 4158 	LD	B,(HL)
   14BD 4F                 4159 	LD	C,A
   14BE 7B                 4160 	LD	A,E
   14BF 02                 4161 	LD	(BC),A
   14C0 FA 01 00           4162 	LD	A,(_soundReg+1)
   14C3 57                 4163 	LD	D,A
   14C4 FA 00 00           4164 	LD	A,(_soundReg)
   14C7 5F                 4165 	LD	E,A
   14C8 21 15 00           4166 	LD	HL,#21
   14CB 19                 4167 	ADD	HL,DE
   14CC 54                 4168 	LD	D,H
   14CD 5D                 4169 	LD	E,L
   14CE 1A                 4170 	LD	A,(DE)
   14CF 5F                 4171 	LD	E,A
   14D0 E0 25              4172 	LDH	(0x25),A
   14D2 C3 60 19           4173 	JP	.L170
   14D5                    4174 .L180:
                           4175 ;	soundReg->control.Sound3_On_Off = value;
                           4176 ;	NR52_REG = ((UBYTE *)soundReg)[0x16];
                           4177 ;	break;
   14D5 FA 01 00           4178 	LD	A,(_soundReg+1)
   14D8 57                 4179 	LD	D,A
   14D9 FA 00 00           4180 	LD	A,(_soundReg)
   14DC 5F                 4181 	LD	E,A
   14DD 21 16 00           4182 	LD	HL,#22
   14E0 19                 4183 	ADD	HL,DE
   14E1 54                 4184 	LD	D,H
   14E2 5D                 4185 	LD	E,L
   14E3 F8 10              4186 	LDA	HL,16(SP)
   14E5 7B                 4187 	LD	A,E
   14E6 22                 4188 	LD	(HL+),A
   14E7 72                 4189 	LD	(HL),D
   14E8 1A                 4190 	LD	A,(DE)
   14E9 4F                 4191 	LD	C,A
   14EA 3E FB              4192 	LD	A,#<251
   14EC A1                 4193 	AND	C
   14ED 4F                 4194 	LD	C,A
   14EE F8 22              4195 	LDA	HL,34(SP)
   14F0 2A                 4196 	LD	A,(HL+)
   14F1 56                 4197 	LD	D,(HL)
   14F2 5F                 4198 	LD	E,A
   14F3 3E 01              4199 	LD	A,#<1
   14F5 A3                 4200 	AND	E
ASxxxx Assembler V01.75  (GameBoy Z80-like CPU), page 76.



   14F6 5F                 4201 	LD	E,A
   14F7 CB 23              4202 	SLA	E
   14F9 CB 23              4203 	SLA	E
   14FB 3E 04              4204 	LD	A,#<4
   14FD A3                 4205 	AND	E
   14FE 5F                 4206 	LD	E,A
   14FF B1                 4207 	OR	C
   1500 5F                 4208 	LD	E,A
   1501 F8 10              4209 	LDA	HL,16(SP)
   1503 2A                 4210 	LD	A,(HL+)
   1504 46                 4211 	LD	B,(HL)
   1505 4F                 4212 	LD	C,A
   1506 7B                 4213 	LD	A,E
   1507 02                 4214 	LD	(BC),A
   1508 FA 01 00           4215 	LD	A,(_soundReg+1)
   150B 57                 4216 	LD	D,A
   150C FA 00 00           4217 	LD	A,(_soundReg)
   150F 5F                 4218 	LD	E,A
   1510 21 16 00           4219 	LD	HL,#22
   1513 19                 4220 	ADD	HL,DE
   1514 54                 4221 	LD	D,H
   1515 5D                 4222 	LD	E,L
   1516 1A                 4223 	LD	A,(DE)
   1517 5F                 4224 	LD	E,A
   1518 E0 26              4225 	LDH	(0x26),A
   151A C3 60 19           4226 	JP	.L170
   151D                    4227 .L181:
                           4228 ;	update_value(mode, FREQUENCY, current_value(mode, FREQUENCY));
                           4229 ;	soundReg->mode3.restart = value;
                           4230 ;	NR34_REG = ((UBYTE *)soundReg)[0x0E];
                           4231 ;	soundReg->mode3.restart = 0;
                           4232 ;	break;
                           4233 ;  } else if(mode == 4) {
   151D 3E 21              4234 	LD	A,#<33
   151F F5                 4235 	PUSH	AF
   1520 33                 4236 	INC	SP
   1521 F8 21              4237 	LDA	HL,33(SP)
   1523 7E                 4238 	LD	A,(HL)
   1524 F5                 4239 	PUSH	AF
   1525 33                 4240 	INC	SP
   1526 CD 00 00           4241 	CALL	_current_value
   1529 E8 02              4242 	LDA	SP,2(SP)
   152B D5                 4243 	PUSH	DE
   152C 3E 21              4244 	LD	A,#<33
   152E F5                 4245 	PUSH	AF
   152F 33                 4246 	INC	SP
   1530 F8 23              4247 	LDA	HL,35(SP)
   1532 7E                 4248 	LD	A,(HL)
   1533 F5                 4249 	PUSH	AF
   1534 33                 4250 	INC	SP
   1535 CD AA 06           4251 	CALL	_update_value
   1538 E8 04              4252 	LDA	SP,4(SP)
   153A FA 01 00           4253 	LD	A,(_soundReg+1)
   153D 57                 4254 	LD	D,A
   153E FA 00 00           4255 	LD	A,(_soundReg)
   1541 5F                 4256 	LD	E,A
ASxxxx Assembler V01.75  (GameBoy Z80-like CPU), page 77.



   1542 21 0E 00           4257 	LD	HL,#14
   1545 19                 4258 	ADD	HL,DE
   1546 54                 4259 	LD	D,H
   1547 5D                 4260 	LD	E,L
   1548 F8 0E              4261 	LDA	HL,14(SP)
   154A 7B                 4262 	LD	A,E
   154B 22                 4263 	LD	(HL+),A
   154C 72                 4264 	LD	(HL),D
   154D 1A                 4265 	LD	A,(DE)
   154E 4F                 4266 	LD	C,A
   154F 3E 7F              4267 	LD	A,#<127
   1551 A1                 4268 	AND	C
   1552 4F                 4269 	LD	C,A
   1553 F8 22              4270 	LDA	HL,34(SP)
   1555 2A                 4271 	LD	A,(HL+)
   1556 56                 4272 	LD	D,(HL)
   1557 5F                 4273 	LD	E,A
   1558 3E 01              4274 	LD	A,#<1
   155A A3                 4275 	AND	E
   155B 5F                 4276 	LD	E,A
   155C CB 23              4277 	SLA	E
   155E CB 23              4278 	SLA	E
   1560 CB 23              4279 	SLA	E
   1562 CB 23              4280 	SLA	E
   1564 CB 23              4281 	SLA	E
   1566 CB 23              4282 	SLA	E
   1568 CB 23              4283 	SLA	E
   156A 3E 80              4284 	LD	A,#<128
   156C A3                 4285 	AND	E
   156D 5F                 4286 	LD	E,A
   156E B1                 4287 	OR	C
   156F 5F                 4288 	LD	E,A
   1570 F8 0E              4289 	LDA	HL,14(SP)
   1572 2A                 4290 	LD	A,(HL+)
   1573 46                 4291 	LD	B,(HL)
   1574 4F                 4292 	LD	C,A
   1575 7B                 4293 	LD	A,E
   1576 02                 4294 	LD	(BC),A
   1577 FA 01 00           4295 	LD	A,(_soundReg+1)
   157A 57                 4296 	LD	D,A
   157B FA 00 00           4297 	LD	A,(_soundReg)
   157E 5F                 4298 	LD	E,A
   157F 21 0E 00           4299 	LD	HL,#14
   1582 19                 4300 	ADD	HL,DE
   1583 54                 4301 	LD	D,H
   1584 5D                 4302 	LD	E,L
   1585 1A                 4303 	LD	A,(DE)
   1586 5F                 4304 	LD	E,A
   1587 E0 1E              4305 	LDH	(0x1E),A
   1589 FA 01 00           4306 	LD	A,(_soundReg+1)
   158C 57                 4307 	LD	D,A
   158D FA 00 00           4308 	LD	A,(_soundReg)
   1590 5F                 4309 	LD	E,A
   1591 21 0E 00           4310 	LD	HL,#14
   1594 19                 4311 	ADD	HL,DE
   1595 54                 4312 	LD	D,H
ASxxxx Assembler V01.75  (GameBoy Z80-like CPU), page 78.



   1596 5D                 4313 	LD	E,L
   1597 1A                 4314 	LD	A,(DE)
   1598 E6 7F              4315 	AND	#<127
   159A 12                 4316 	LD	(DE),A
   159B C3 60 19           4317 	JP	.L170
   159E                    4318 .L169:
                           4319 ;    switch(line)
   159E F8 20              4320 	LDA	HL,32(SP)
   15A0 3E 04              4321 	LD	A,#<4
   15A2 BE                 4322 	CP	(HL)
   15A3 C2 60 19           4323 	JP	NZ,.L184
   15A6 F8 21              4324 	LDA	HL,33(SP)
   15A8 5E                 4325 	LD	E,(HL)
   15A9 7B                 4326 	LD	A,E
   15AA C6 80              4327 	ADD	#0x80
   15AC FE 8A              4328 	CP	#<138
   15AE 28 03              4329 	JR	Z,.L206
   15B0 D2 C5 15           4330 	JP	NC,.L200
   15B3                    4331 .L206:
   15B3 7B                 4332 	LD	A,E
   15B4 07                 4333 	RLCA
   15B5 9F                 4334 	SBC	A
   15B6 57                 4335 	LD	D,A
   15B7 CB 23              4336 	SLA	E
   15B9 CB 12              4337 	RL	D
   15BB 21 A6 00           4338 	LD	HL,#.L201
   15BE 19                 4339 	ADD	HL,DE
   15BF 54                 4340 	LD	D,H
   15C0 5D                 4341 	LD	E,L
   15C1 2A                 4342 	LD	A,(HL+)
   15C2 66                 4343 	LD	H,(HL)
   15C3 6F                 4344 	LD	L,A
   15C4 E9                 4345 	JP	(HL)
                           4346 	;; _CODE ends
                           4347 	.area	_LIT
   00A6                    4348 .L201:
   00A6 D1 15              4349 	.dw	.L188
   00A8 15 16              4350 	.dw	.L189
   00AA 61 16              4351 	.dw	.L190
   00AC AB 16              4352 	.dw	.L191
   00AE EF 16              4353 	.dw	.L192
   00B0 3B 17              4354 	.dw	.L193
   00B2 85 17              4355 	.dw	.L194
   00B4 C9 17              4356 	.dw	.L195
   00B6 19 18              4357 	.dw	.L196
   00B8 63 18              4358 	.dw	.L197
   00BA B5 18              4359 	.dw	.L198
                           4360 	;; _LIT ends
                           4361 	.area	_CODE
   15C5                    4362 .L200:
                           4363 ;      {
   15C5 F8 21              4364 	LDA	HL,33(SP)
   15C7 5E                 4365 	LD	E,(HL)
   15C8 7B                 4366 	LD	A,E
   15C9 FE 20              4367 	CP	#<32
   15CB CA FF 18           4368 	JP	Z,.L199
ASxxxx Assembler V01.75  (GameBoy Z80-like CPU), page 79.



   15CE C3 60 19           4369 	JP	.L186
   15D1                    4370 .L188:
                           4371 ;	soundReg->mode4.soundLength = value;
                           4372 ;	NR41_REG = ((UBYTE *)soundReg)[0x10];
                           4373 ;	break;
   15D1 FA 01 00           4374 	LD	A,(_soundReg+1)
   15D4 57                 4375 	LD	D,A
   15D5 FA 00 00           4376 	LD	A,(_soundReg)
   15D8 5F                 4377 	LD	E,A
   15D9 21 10 00           4378 	LD	HL,#16
   15DC 19                 4379 	ADD	HL,DE
   15DD 54                 4380 	LD	D,H
   15DE 5D                 4381 	LD	E,L
   15DF F8 1C              4382 	LDA	HL,28(SP)
   15E1 7B                 4383 	LD	A,E
   15E2 22                 4384 	LD	(HL+),A
   15E3 72                 4385 	LD	(HL),D
   15E4 1A                 4386 	LD	A,(DE)
   15E5 4F                 4387 	LD	C,A
   15E6 3E C0              4388 	LD	A,#<192
   15E8 A1                 4389 	AND	C
   15E9 4F                 4390 	LD	C,A
   15EA F8 22              4391 	LDA	HL,34(SP)
   15EC 2A                 4392 	LD	A,(HL+)
   15ED 56                 4393 	LD	D,(HL)
   15EE 5F                 4394 	LD	E,A
   15EF 3E 3F              4395 	LD	A,#<63
   15F1 A3                 4396 	AND	E
   15F2 5F                 4397 	LD	E,A
   15F3 3E 3F              4398 	LD	A,#<63
   15F5 A3                 4399 	AND	E
   15F6 5F                 4400 	LD	E,A
   15F7 B1                 4401 	OR	C
   15F8 5F                 4402 	LD	E,A
   15F9 F8 1C              4403 	LDA	HL,28(SP)
   15FB 2A                 4404 	LD	A,(HL+)
   15FC 46                 4405 	LD	B,(HL)
   15FD 4F                 4406 	LD	C,A
   15FE 7B                 4407 	LD	A,E
   15FF 02                 4408 	LD	(BC),A
   1600 FA 01 00           4409 	LD	A,(_soundReg+1)
   1603 57                 4410 	LD	D,A
   1604 FA 00 00           4411 	LD	A,(_soundReg)
   1607 5F                 4412 	LD	E,A
   1608 21 10 00           4413 	LD	HL,#16
   160B 19                 4414 	ADD	HL,DE
   160C 54                 4415 	LD	D,H
   160D 5D                 4416 	LD	E,L
   160E 1A                 4417 	LD	A,(DE)
   160F 5F                 4418 	LD	E,A
   1610 E0 20              4419 	LDH	(0x20),A
   1612 C3 60 19           4420 	JP	.L187
   1615                    4421 .L189:
                           4422 ;	soundReg->mode4.envInitialValue = value;
                           4423 ;	NR42_REG = ((UBYTE *)soundReg)[0x11];
                           4424 ;	break;
ASxxxx Assembler V01.75  (GameBoy Z80-like CPU), page 80.



   1615 FA 01 00           4425 	LD	A,(_soundReg+1)
   1618 57                 4426 	LD	D,A
   1619 FA 00 00           4427 	LD	A,(_soundReg)
   161C 5F                 4428 	LD	E,A
   161D 21 11 00           4429 	LD	HL,#17
   1620 19                 4430 	ADD	HL,DE
   1621 54                 4431 	LD	D,H
   1622 5D                 4432 	LD	E,L
   1623 F8 1A              4433 	LDA	HL,26(SP)
   1625 7B                 4434 	LD	A,E
   1626 22                 4435 	LD	(HL+),A
   1627 72                 4436 	LD	(HL),D
   1628 1A                 4437 	LD	A,(DE)
   1629 4F                 4438 	LD	C,A
   162A 3E 0F              4439 	LD	A,#<15
   162C A1                 4440 	AND	C
   162D 4F                 4441 	LD	C,A
   162E F8 22              4442 	LDA	HL,34(SP)
   1630 2A                 4443 	LD	A,(HL+)
   1631 56                 4444 	LD	D,(HL)
   1632 5F                 4445 	LD	E,A
   1633 3E 0F              4446 	LD	A,#<15
   1635 A3                 4447 	AND	E
   1636 5F                 4448 	LD	E,A
   1637 CB 23              4449 	SLA	E
   1639 CB 23              4450 	SLA	E
   163B CB 23              4451 	SLA	E
   163D CB 23              4452 	SLA	E
   163F 3E F0              4453 	LD	A,#<240
   1641 A3                 4454 	AND	E
   1642 5F                 4455 	LD	E,A
   1643 B1                 4456 	OR	C
   1644 5F                 4457 	LD	E,A
   1645 F8 1A              4458 	LDA	HL,26(SP)
   1647 2A                 4459 	LD	A,(HL+)
   1648 46                 4460 	LD	B,(HL)
   1649 4F                 4461 	LD	C,A
   164A 7B                 4462 	LD	A,E
   164B 02                 4463 	LD	(BC),A
   164C FA 01 00           4464 	LD	A,(_soundReg+1)
   164F 57                 4465 	LD	D,A
   1650 FA 00 00           4466 	LD	A,(_soundReg)
   1653 5F                 4467 	LD	E,A
   1654 21 11 00           4468 	LD	HL,#17
   1657 19                 4469 	ADD	HL,DE
   1658 54                 4470 	LD	D,H
   1659 5D                 4471 	LD	E,L
   165A 1A                 4472 	LD	A,(DE)
   165B 5F                 4473 	LD	E,A
   165C E0 21              4474 	LDH	(0x21),A
   165E C3 60 19           4475 	JP	.L187
   1661                    4476 .L190:
                           4477 ;	soundReg->mode4.envMode = value;
                           4478 ;	NR42_REG = ((UBYTE *)soundReg)[0x11];
                           4479 ;	break;
   1661 FA 01 00           4480 	LD	A,(_soundReg+1)
ASxxxx Assembler V01.75  (GameBoy Z80-like CPU), page 81.



   1664 57                 4481 	LD	D,A
   1665 FA 00 00           4482 	LD	A,(_soundReg)
   1668 5F                 4483 	LD	E,A
   1669 21 11 00           4484 	LD	HL,#17
   166C 19                 4485 	ADD	HL,DE
   166D 54                 4486 	LD	D,H
   166E 5D                 4487 	LD	E,L
   166F F8 18              4488 	LDA	HL,24(SP)
   1671 7B                 4489 	LD	A,E
   1672 22                 4490 	LD	(HL+),A
   1673 72                 4491 	LD	(HL),D
   1674 1A                 4492 	LD	A,(DE)
   1675 4F                 4493 	LD	C,A
   1676 3E F7              4494 	LD	A,#<247
   1678 A1                 4495 	AND	C
   1679 4F                 4496 	LD	C,A
   167A F8 22              4497 	LDA	HL,34(SP)
   167C 2A                 4498 	LD	A,(HL+)
   167D 56                 4499 	LD	D,(HL)
   167E 5F                 4500 	LD	E,A
   167F 3E 01              4501 	LD	A,#<1
   1681 A3                 4502 	AND	E
   1682 5F                 4503 	LD	E,A
   1683 CB 23              4504 	SLA	E
   1685 CB 23              4505 	SLA	E
   1687 CB 23              4506 	SLA	E
   1689 3E 08              4507 	LD	A,#<8
   168B A3                 4508 	AND	E
   168C 5F                 4509 	LD	E,A
   168D B1                 4510 	OR	C
   168E 5F                 4511 	LD	E,A
   168F F8 18              4512 	LDA	HL,24(SP)
   1691 2A                 4513 	LD	A,(HL+)
   1692 46                 4514 	LD	B,(HL)
   1693 4F                 4515 	LD	C,A
   1694 7B                 4516 	LD	A,E
   1695 02                 4517 	LD	(BC),A
   1696 FA 01 00           4518 	LD	A,(_soundReg+1)
   1699 57                 4519 	LD	D,A
   169A FA 00 00           4520 	LD	A,(_soundReg)
   169D 5F                 4521 	LD	E,A
   169E 21 11 00           4522 	LD	HL,#17
   16A1 19                 4523 	ADD	HL,DE
   16A2 54                 4524 	LD	D,H
   16A3 5D                 4525 	LD	E,L
   16A4 1A                 4526 	LD	A,(DE)
   16A5 5F                 4527 	LD	E,A
   16A6 E0 21              4528 	LDH	(0x21),A
   16A8 C3 60 19           4529 	JP	.L187
   16AB                    4530 .L191:
                           4531 ;	soundReg->mode4.envNbStep = value;
                           4532 ;	NR42_REG = ((UBYTE *)soundReg)[0x11];
                           4533 ;	break;
   16AB FA 01 00           4534 	LD	A,(_soundReg+1)
   16AE 57                 4535 	LD	D,A
   16AF FA 00 00           4536 	LD	A,(_soundReg)
ASxxxx Assembler V01.75  (GameBoy Z80-like CPU), page 82.



   16B2 5F                 4537 	LD	E,A
   16B3 21 11 00           4538 	LD	HL,#17
   16B6 19                 4539 	ADD	HL,DE
   16B7 54                 4540 	LD	D,H
   16B8 5D                 4541 	LD	E,L
   16B9 F8 16              4542 	LDA	HL,22(SP)
   16BB 7B                 4543 	LD	A,E
   16BC 22                 4544 	LD	(HL+),A
   16BD 72                 4545 	LD	(HL),D
   16BE 1A                 4546 	LD	A,(DE)
   16BF 4F                 4547 	LD	C,A
   16C0 3E F8              4548 	LD	A,#<248
   16C2 A1                 4549 	AND	C
   16C3 4F                 4550 	LD	C,A
   16C4 F8 22              4551 	LDA	HL,34(SP)
   16C6 2A                 4552 	LD	A,(HL+)
   16C7 56                 4553 	LD	D,(HL)
   16C8 5F                 4554 	LD	E,A
   16C9 3E 07              4555 	LD	A,#<7
   16CB A3                 4556 	AND	E
   16CC 5F                 4557 	LD	E,A
   16CD 3E 07              4558 	LD	A,#<7
   16CF A3                 4559 	AND	E
   16D0 5F                 4560 	LD	E,A
   16D1 B1                 4561 	OR	C
   16D2 5F                 4562 	LD	E,A
   16D3 F8 16              4563 	LDA	HL,22(SP)
   16D5 2A                 4564 	LD	A,(HL+)
   16D6 46                 4565 	LD	B,(HL)
   16D7 4F                 4566 	LD	C,A
   16D8 7B                 4567 	LD	A,E
   16D9 02                 4568 	LD	(BC),A
   16DA FA 01 00           4569 	LD	A,(_soundReg+1)
   16DD 57                 4570 	LD	D,A
   16DE FA 00 00           4571 	LD	A,(_soundReg)
   16E1 5F                 4572 	LD	E,A
   16E2 21 11 00           4573 	LD	HL,#17
   16E5 19                 4574 	ADD	HL,DE
   16E6 54                 4575 	LD	D,H
   16E7 5D                 4576 	LD	E,L
   16E8 1A                 4577 	LD	A,(DE)
   16E9 5F                 4578 	LD	E,A
   16EA E0 21              4579 	LDH	(0x21),A
   16EC C3 60 19           4580 	JP	.L187
   16EF                    4581 .L192:
                           4582 ;	soundReg->mode4.polyCounterFreq = value;
                           4583 ;	NR43_REG = ((UBYTE *)soundReg)[0x12];
                           4584 ;	break;
   16EF FA 01 00           4585 	LD	A,(_soundReg+1)
   16F2 57                 4586 	LD	D,A
   16F3 FA 00 00           4587 	LD	A,(_soundReg)
   16F6 5F                 4588 	LD	E,A
   16F7 21 12 00           4589 	LD	HL,#18
   16FA 19                 4590 	ADD	HL,DE
   16FB 54                 4591 	LD	D,H
   16FC 5D                 4592 	LD	E,L
ASxxxx Assembler V01.75  (GameBoy Z80-like CPU), page 83.



   16FD F8 14              4593 	LDA	HL,20(SP)
   16FF 7B                 4594 	LD	A,E
   1700 22                 4595 	LD	(HL+),A
   1701 72                 4596 	LD	(HL),D
   1702 1A                 4597 	LD	A,(DE)
   1703 4F                 4598 	LD	C,A
   1704 3E 0F              4599 	LD	A,#<15
   1706 A1                 4600 	AND	C
   1707 4F                 4601 	LD	C,A
   1708 F8 22              4602 	LDA	HL,34(SP)
   170A 2A                 4603 	LD	A,(HL+)
   170B 56                 4604 	LD	D,(HL)
   170C 5F                 4605 	LD	E,A
   170D 3E 0F              4606 	LD	A,#<15
   170F A3                 4607 	AND	E
   1710 5F                 4608 	LD	E,A
   1711 CB 23              4609 	SLA	E
   1713 CB 23              4610 	SLA	E
   1715 CB 23              4611 	SLA	E
   1717 CB 23              4612 	SLA	E
   1719 3E F0              4613 	LD	A,#<240
   171B A3                 4614 	AND	E
   171C 5F                 4615 	LD	E,A
   171D B1                 4616 	OR	C
   171E 5F                 4617 	LD	E,A
   171F F8 14              4618 	LDA	HL,20(SP)
   1721 2A                 4619 	LD	A,(HL+)
   1722 46                 4620 	LD	B,(HL)
   1723 4F                 4621 	LD	C,A
   1724 7B                 4622 	LD	A,E
   1725 02                 4623 	LD	(BC),A
   1726 FA 01 00           4624 	LD	A,(_soundReg+1)
   1729 57                 4625 	LD	D,A
   172A FA 00 00           4626 	LD	A,(_soundReg)
   172D 5F                 4627 	LD	E,A
   172E 21 12 00           4628 	LD	HL,#18
   1731 19                 4629 	ADD	HL,DE
   1732 54                 4630 	LD	D,H
   1733 5D                 4631 	LD	E,L
   1734 1A                 4632 	LD	A,(DE)
   1735 5F                 4633 	LD	E,A
   1736 E0 22              4634 	LDH	(0x22),A
   1738 C3 60 19           4635 	JP	.L187
   173B                    4636 .L193:
                           4637 ;	soundReg->mode4.polyCounterStep = value;
                           4638 ;	NR43_REG = ((UBYTE *)soundReg)[0x12];
                           4639 ;	break;
   173B FA 01 00           4640 	LD	A,(_soundReg+1)
   173E 57                 4641 	LD	D,A
   173F FA 00 00           4642 	LD	A,(_soundReg)
   1742 5F                 4643 	LD	E,A
   1743 21 12 00           4644 	LD	HL,#18
   1746 19                 4645 	ADD	HL,DE
   1747 54                 4646 	LD	D,H
   1748 5D                 4647 	LD	E,L
   1749 F8 12              4648 	LDA	HL,18(SP)
ASxxxx Assembler V01.75  (GameBoy Z80-like CPU), page 84.



   174B 7B                 4649 	LD	A,E
   174C 22                 4650 	LD	(HL+),A
   174D 72                 4651 	LD	(HL),D
   174E 1A                 4652 	LD	A,(DE)
   174F 4F                 4653 	LD	C,A
   1750 3E F7              4654 	LD	A,#<247
   1752 A1                 4655 	AND	C
   1753 4F                 4656 	LD	C,A
   1754 F8 22              4657 	LDA	HL,34(SP)
   1756 2A                 4658 	LD	A,(HL+)
   1757 56                 4659 	LD	D,(HL)
   1758 5F                 4660 	LD	E,A
   1759 3E 01              4661 	LD	A,#<1
   175B A3                 4662 	AND	E
   175C 5F                 4663 	LD	E,A
   175D CB 23              4664 	SLA	E
   175F CB 23              4665 	SLA	E
   1761 CB 23              4666 	SLA	E
   1763 3E 08              4667 	LD	A,#<8
   1765 A3                 4668 	AND	E
   1766 5F                 4669 	LD	E,A
   1767 B1                 4670 	OR	C
   1768 5F                 4671 	LD	E,A
   1769 F8 12              4672 	LDA	HL,18(SP)
   176B 2A                 4673 	LD	A,(HL+)
   176C 46                 4674 	LD	B,(HL)
   176D 4F                 4675 	LD	C,A
   176E 7B                 4676 	LD	A,E
   176F 02                 4677 	LD	(BC),A
   1770 FA 01 00           4678 	LD	A,(_soundReg+1)
   1773 57                 4679 	LD	D,A
   1774 FA 00 00           4680 	LD	A,(_soundReg)
   1777 5F                 4681 	LD	E,A
   1778 21 12 00           4682 	LD	HL,#18
   177B 19                 4683 	ADD	HL,DE
   177C 54                 4684 	LD	D,H
   177D 5D                 4685 	LD	E,L
   177E 1A                 4686 	LD	A,(DE)
   177F 5F                 4687 	LD	E,A
   1780 E0 22              4688 	LDH	(0x22),A
   1782 C3 60 19           4689 	JP	.L187
   1785                    4690 .L194:
                           4691 ;	soundReg->mode4.polyCounterDiv = value;
                           4692 ;	NR43_REG = ((UBYTE *)soundReg)[0x12];
                           4693 ;	break;
   1785 FA 01 00           4694 	LD	A,(_soundReg+1)
   1788 57                 4695 	LD	D,A
   1789 FA 00 00           4696 	LD	A,(_soundReg)
   178C 5F                 4697 	LD	E,A
   178D 21 12 00           4698 	LD	HL,#18
   1790 19                 4699 	ADD	HL,DE
   1791 54                 4700 	LD	D,H
   1792 5D                 4701 	LD	E,L
   1793 F8 10              4702 	LDA	HL,16(SP)
   1795 7B                 4703 	LD	A,E
   1796 22                 4704 	LD	(HL+),A
ASxxxx Assembler V01.75  (GameBoy Z80-like CPU), page 85.



   1797 72                 4705 	LD	(HL),D
   1798 1A                 4706 	LD	A,(DE)
   1799 4F                 4707 	LD	C,A
   179A 3E F8              4708 	LD	A,#<248
   179C A1                 4709 	AND	C
   179D 4F                 4710 	LD	C,A
   179E F8 22              4711 	LDA	HL,34(SP)
   17A0 2A                 4712 	LD	A,(HL+)
   17A1 56                 4713 	LD	D,(HL)
   17A2 5F                 4714 	LD	E,A
   17A3 3E 07              4715 	LD	A,#<7
   17A5 A3                 4716 	AND	E
   17A6 5F                 4717 	LD	E,A
   17A7 3E 07              4718 	LD	A,#<7
   17A9 A3                 4719 	AND	E
   17AA 5F                 4720 	LD	E,A
   17AB B1                 4721 	OR	C
   17AC 5F                 4722 	LD	E,A
   17AD F8 10              4723 	LDA	HL,16(SP)
   17AF 2A                 4724 	LD	A,(HL+)
   17B0 46                 4725 	LD	B,(HL)
   17B1 4F                 4726 	LD	C,A
   17B2 7B                 4727 	LD	A,E
   17B3 02                 4728 	LD	(BC),A
   17B4 FA 01 00           4729 	LD	A,(_soundReg+1)
   17B7 57                 4730 	LD	D,A
   17B8 FA 00 00           4731 	LD	A,(_soundReg)
   17BB 5F                 4732 	LD	E,A
   17BC 21 12 00           4733 	LD	HL,#18
   17BF 19                 4734 	ADD	HL,DE
   17C0 54                 4735 	LD	D,H
   17C1 5D                 4736 	LD	E,L
   17C2 1A                 4737 	LD	A,(DE)
   17C3 5F                 4738 	LD	E,A
   17C4 E0 22              4739 	LDH	(0x22),A
   17C6 C3 60 19           4740 	JP	.L187
   17C9                    4741 .L195:
                           4742 ;	soundReg->mode4.counter_ConsSel = value;
                           4743 ;	NR44_REG = ((UBYTE *)soundReg)[0x13];
                           4744 ;	break;
   17C9 FA 01 00           4745 	LD	A,(_soundReg+1)
   17CC 57                 4746 	LD	D,A
   17CD FA 00 00           4747 	LD	A,(_soundReg)
   17D0 5F                 4748 	LD	E,A
   17D1 21 13 00           4749 	LD	HL,#19
   17D4 19                 4750 	ADD	HL,DE
   17D5 54                 4751 	LD	D,H
   17D6 5D                 4752 	LD	E,L
   17D7 F8 0E              4753 	LDA	HL,14(SP)
   17D9 7B                 4754 	LD	A,E
   17DA 22                 4755 	LD	(HL+),A
   17DB 72                 4756 	LD	(HL),D
   17DC 1A                 4757 	LD	A,(DE)
   17DD 4F                 4758 	LD	C,A
   17DE 3E BF              4759 	LD	A,#<191
   17E0 A1                 4760 	AND	C
ASxxxx Assembler V01.75  (GameBoy Z80-like CPU), page 86.



   17E1 4F                 4761 	LD	C,A
   17E2 F8 22              4762 	LDA	HL,34(SP)
   17E4 2A                 4763 	LD	A,(HL+)
   17E5 56                 4764 	LD	D,(HL)
   17E6 5F                 4765 	LD	E,A
   17E7 3E 01              4766 	LD	A,#<1
   17E9 A3                 4767 	AND	E
   17EA 5F                 4768 	LD	E,A
   17EB CB 23              4769 	SLA	E
   17ED CB 23              4770 	SLA	E
   17EF CB 23              4771 	SLA	E
   17F1 CB 23              4772 	SLA	E
   17F3 CB 23              4773 	SLA	E
   17F5 CB 23              4774 	SLA	E
   17F7 3E 40              4775 	LD	A,#<64
   17F9 A3                 4776 	AND	E
   17FA 5F                 4777 	LD	E,A
   17FB B1                 4778 	OR	C
   17FC 5F                 4779 	LD	E,A
   17FD F8 0E              4780 	LDA	HL,14(SP)
   17FF 2A                 4781 	LD	A,(HL+)
   1800 46                 4782 	LD	B,(HL)
   1801 4F                 4783 	LD	C,A
   1802 7B                 4784 	LD	A,E
   1803 02                 4785 	LD	(BC),A
   1804 FA 01 00           4786 	LD	A,(_soundReg+1)
   1807 57                 4787 	LD	D,A
   1808 FA 00 00           4788 	LD	A,(_soundReg)
   180B 5F                 4789 	LD	E,A
   180C 21 13 00           4790 	LD	HL,#19
   180F 19                 4791 	ADD	HL,DE
   1810 54                 4792 	LD	D,H
   1811 5D                 4793 	LD	E,L
   1812 1A                 4794 	LD	A,(DE)
   1813 5F                 4795 	LD	E,A
   1814 E0 23              4796 	LDH	(0x23),A
   1816 C3 60 19           4797 	JP	.L187
   1819                    4798 .L196:
                           4799 ;	soundReg->control.Sound4_To_SO1 = value;
                           4800 ;	NR51_REG = ((UBYTE *)soundReg)[0x15];
                           4801 ;	break;
   1819 FA 01 00           4802 	LD	A,(_soundReg+1)
   181C 57                 4803 	LD	D,A
   181D FA 00 00           4804 	LD	A,(_soundReg)
   1820 5F                 4805 	LD	E,A
   1821 21 15 00           4806 	LD	HL,#21
   1824 19                 4807 	ADD	HL,DE
   1825 54                 4808 	LD	D,H
   1826 5D                 4809 	LD	E,L
   1827 F8 0C              4810 	LDA	HL,12(SP)
   1829 7B                 4811 	LD	A,E
   182A 22                 4812 	LD	(HL+),A
   182B 72                 4813 	LD	(HL),D
   182C 1A                 4814 	LD	A,(DE)
   182D 4F                 4815 	LD	C,A
   182E 3E F7              4816 	LD	A,#<247
ASxxxx Assembler V01.75  (GameBoy Z80-like CPU), page 87.



   1830 A1                 4817 	AND	C
   1831 4F                 4818 	LD	C,A
   1832 F8 22              4819 	LDA	HL,34(SP)
   1834 2A                 4820 	LD	A,(HL+)
   1835 56                 4821 	LD	D,(HL)
   1836 5F                 4822 	LD	E,A
   1837 3E 01              4823 	LD	A,#<1
   1839 A3                 4824 	AND	E
   183A 5F                 4825 	LD	E,A
   183B CB 23              4826 	SLA	E
   183D CB 23              4827 	SLA	E
   183F CB 23              4828 	SLA	E
   1841 3E 08              4829 	LD	A,#<8
   1843 A3                 4830 	AND	E
   1844 5F                 4831 	LD	E,A
   1845 B1                 4832 	OR	C
   1846 5F                 4833 	LD	E,A
   1847 F8 0C              4834 	LDA	HL,12(SP)
   1849 2A                 4835 	LD	A,(HL+)
   184A 46                 4836 	LD	B,(HL)
   184B 4F                 4837 	LD	C,A
   184C 7B                 4838 	LD	A,E
   184D 02                 4839 	LD	(BC),A
   184E FA 01 00           4840 	LD	A,(_soundReg+1)
   1851 57                 4841 	LD	D,A
   1852 FA 00 00           4842 	LD	A,(_soundReg)
   1855 5F                 4843 	LD	E,A
   1856 21 15 00           4844 	LD	HL,#21
   1859 19                 4845 	ADD	HL,DE
   185A 54                 4846 	LD	D,H
   185B 5D                 4847 	LD	E,L
   185C 1A                 4848 	LD	A,(DE)
   185D 5F                 4849 	LD	E,A
   185E E0 25              4850 	LDH	(0x25),A
   1860 C3 60 19           4851 	JP	.L187
   1863                    4852 .L197:
                           4853 ;	soundReg->control.Sound4_To_SO2 = value;
                           4854 ;	NR51_REG = ((UBYTE *)soundReg)[0x15];
                           4855 ;	break;
   1863 FA 01 00           4856 	LD	A,(_soundReg+1)
   1866 57                 4857 	LD	D,A
   1867 FA 00 00           4858 	LD	A,(_soundReg)
   186A 5F                 4859 	LD	E,A
   186B 21 15 00           4860 	LD	HL,#21
   186E 19                 4861 	ADD	HL,DE
   186F 54                 4862 	LD	D,H
   1870 5D                 4863 	LD	E,L
   1871 F8 0A              4864 	LDA	HL,10(SP)
   1873 7B                 4865 	LD	A,E
   1874 22                 4866 	LD	(HL+),A
   1875 72                 4867 	LD	(HL),D
   1876 1A                 4868 	LD	A,(DE)
   1877 4F                 4869 	LD	C,A
   1878 3E 7F              4870 	LD	A,#<127
   187A A1                 4871 	AND	C
   187B 4F                 4872 	LD	C,A
ASxxxx Assembler V01.75  (GameBoy Z80-like CPU), page 88.



   187C F8 22              4873 	LDA	HL,34(SP)
   187E 2A                 4874 	LD	A,(HL+)
   187F 56                 4875 	LD	D,(HL)
   1880 5F                 4876 	LD	E,A
   1881 3E 01              4877 	LD	A,#<1
   1883 A3                 4878 	AND	E
   1884 5F                 4879 	LD	E,A
   1885 CB 23              4880 	SLA	E
   1887 CB 23              4881 	SLA	E
   1889 CB 23              4882 	SLA	E
   188B CB 23              4883 	SLA	E
   188D CB 23              4884 	SLA	E
   188F CB 23              4885 	SLA	E
   1891 CB 23              4886 	SLA	E
   1893 3E 80              4887 	LD	A,#<128
   1895 A3                 4888 	AND	E
   1896 5F                 4889 	LD	E,A
   1897 B1                 4890 	OR	C
   1898 5F                 4891 	LD	E,A
   1899 F8 0A              4892 	LDA	HL,10(SP)
   189B 2A                 4893 	LD	A,(HL+)
   189C 46                 4894 	LD	B,(HL)
   189D 4F                 4895 	LD	C,A
   189E 7B                 4896 	LD	A,E
   189F 02                 4897 	LD	(BC),A
   18A0 FA 01 00           4898 	LD	A,(_soundReg+1)
   18A3 57                 4899 	LD	D,A
   18A4 FA 00 00           4900 	LD	A,(_soundReg)
   18A7 5F                 4901 	LD	E,A
   18A8 21 15 00           4902 	LD	HL,#21
   18AB 19                 4903 	ADD	HL,DE
   18AC 54                 4904 	LD	D,H
   18AD 5D                 4905 	LD	E,L
   18AE 1A                 4906 	LD	A,(DE)
   18AF 5F                 4907 	LD	E,A
   18B0 E0 25              4908 	LDH	(0x25),A
   18B2 C3 60 19           4909 	JP	.L187
   18B5                    4910 .L198:
                           4911 ;	soundReg->control.Sound4_On_Off = value;
                           4912 ;	NR52_REG = ((UBYTE *)soundReg)[0x16];
                           4913 ;	break;
   18B5 FA 01 00           4914 	LD	A,(_soundReg+1)
   18B8 57                 4915 	LD	D,A
   18B9 FA 00 00           4916 	LD	A,(_soundReg)
   18BC 5F                 4917 	LD	E,A
   18BD 21 16 00           4918 	LD	HL,#22
   18C0 19                 4919 	ADD	HL,DE
   18C1 54                 4920 	LD	D,H
   18C2 5D                 4921 	LD	E,L
   18C3 F8 08              4922 	LDA	HL,8(SP)
   18C5 7B                 4923 	LD	A,E
   18C6 22                 4924 	LD	(HL+),A
   18C7 72                 4925 	LD	(HL),D
   18C8 1A                 4926 	LD	A,(DE)
   18C9 4F                 4927 	LD	C,A
   18CA 3E F7              4928 	LD	A,#<247
ASxxxx Assembler V01.75  (GameBoy Z80-like CPU), page 89.



   18CC A1                 4929 	AND	C
   18CD 4F                 4930 	LD	C,A
   18CE F8 22              4931 	LDA	HL,34(SP)
   18D0 2A                 4932 	LD	A,(HL+)
   18D1 56                 4933 	LD	D,(HL)
   18D2 5F                 4934 	LD	E,A
   18D3 3E 01              4935 	LD	A,#<1
   18D5 A3                 4936 	AND	E
   18D6 5F                 4937 	LD	E,A
   18D7 CB 23              4938 	SLA	E
   18D9 CB 23              4939 	SLA	E
   18DB CB 23              4940 	SLA	E
   18DD 3E 08              4941 	LD	A,#<8
   18DF A3                 4942 	AND	E
   18E0 5F                 4943 	LD	E,A
   18E1 B1                 4944 	OR	C
   18E2 5F                 4945 	LD	E,A
   18E3 F8 08              4946 	LDA	HL,8(SP)
   18E5 2A                 4947 	LD	A,(HL+)
   18E6 46                 4948 	LD	B,(HL)
   18E7 4F                 4949 	LD	C,A
   18E8 7B                 4950 	LD	A,E
   18E9 02                 4951 	LD	(BC),A
   18EA FA 01 00           4952 	LD	A,(_soundReg+1)
   18ED 57                 4953 	LD	D,A
   18EE FA 00 00           4954 	LD	A,(_soundReg)
   18F1 5F                 4955 	LD	E,A
   18F2 21 16 00           4956 	LD	HL,#22
   18F5 19                 4957 	ADD	HL,DE
   18F6 54                 4958 	LD	D,H
   18F7 5D                 4959 	LD	E,L
   18F8 1A                 4960 	LD	A,(DE)
   18F9 5F                 4961 	LD	E,A
   18FA E0 26              4962 	LDH	(0x26),A
   18FC C3 60 19           4963 	JP	.L187
   18FF                    4964 .L199:
                           4965 ;	soundReg->mode4.restart = value;
                           4966 ;	NR44_REG = ((UBYTE *)soundReg)[0x13];
                           4967 ;	soundReg->mode4.restart = 0;
                           4968 ;	break;
   18FF FA 01 00           4969 	LD	A,(_soundReg+1)
   1902 57                 4970 	LD	D,A
   1903 FA 00 00           4971 	LD	A,(_soundReg)
   1906 5F                 4972 	LD	E,A
   1907 21 13 00           4973 	LD	HL,#19
   190A 19                 4974 	ADD	HL,DE
   190B 54                 4975 	LD	D,H
   190C 5D                 4976 	LD	E,L
   190D F8 06              4977 	LDA	HL,6(SP)
   190F 7B                 4978 	LD	A,E
   1910 22                 4979 	LD	(HL+),A
   1911 72                 4980 	LD	(HL),D
   1912 1A                 4981 	LD	A,(DE)
   1913 4F                 4982 	LD	C,A
   1914 3E 7F              4983 	LD	A,#<127
   1916 A1                 4984 	AND	C
ASxxxx Assembler V01.75  (GameBoy Z80-like CPU), page 90.



   1917 4F                 4985 	LD	C,A
   1918 F8 22              4986 	LDA	HL,34(SP)
   191A 2A                 4987 	LD	A,(HL+)
   191B 56                 4988 	LD	D,(HL)
   191C 5F                 4989 	LD	E,A
   191D 3E 01              4990 	LD	A,#<1
   191F A3                 4991 	AND	E
   1920 5F                 4992 	LD	E,A
   1921 CB 23              4993 	SLA	E
   1923 CB 23              4994 	SLA	E
   1925 CB 23              4995 	SLA	E
   1927 CB 23              4996 	SLA	E
   1929 CB 23              4997 	SLA	E
   192B CB 23              4998 	SLA	E
   192D CB 23              4999 	SLA	E
   192F 3E 80              5000 	LD	A,#<128
   1931 A3                 5001 	AND	E
   1932 5F                 5002 	LD	E,A
   1933 B1                 5003 	OR	C
   1934 5F                 5004 	LD	E,A
   1935 F8 06              5005 	LDA	HL,6(SP)
   1937 2A                 5006 	LD	A,(HL+)
   1938 46                 5007 	LD	B,(HL)
   1939 4F                 5008 	LD	C,A
   193A 7B                 5009 	LD	A,E
   193B 02                 5010 	LD	(BC),A
   193C FA 01 00           5011 	LD	A,(_soundReg+1)
   193F 57                 5012 	LD	D,A
   1940 FA 00 00           5013 	LD	A,(_soundReg)
   1943 5F                 5014 	LD	E,A
   1944 21 13 00           5015 	LD	HL,#19
   1947 19                 5016 	ADD	HL,DE
   1948 54                 5017 	LD	D,H
   1949 5D                 5018 	LD	E,L
   194A 1A                 5019 	LD	A,(DE)
   194B 5F                 5020 	LD	E,A
   194C E0 23              5021 	LDH	(0x23),A
   194E FA 01 00           5022 	LD	A,(_soundReg+1)
   1951 57                 5023 	LD	D,A
   1952 FA 00 00           5024 	LD	A,(_soundReg)
   1955 5F                 5025 	LD	E,A
   1956 21 13 00           5026 	LD	HL,#19
   1959 19                 5027 	ADD	HL,DE
   195A 54                 5028 	LD	D,H
   195B 5D                 5029 	LD	E,L
   195C 1A                 5030 	LD	A,(DE)
   195D E6 7F              5031 	AND	#<127
   195F 12                 5032 	LD	(DE),A
   1960                    5033 .L186:
   1960                    5034 .L187:
                           5035 ;  }
   1960                    5036 .L184:
   1960                    5037 .L170:
   1960                    5038 .L153:
   1960                    5039 .L133:
   1960                    5040 .L120:
ASxxxx Assembler V01.75  (GameBoy Z80-like CPU), page 91.



                           5041 ;}
   1960                    5042 .L118:
   1960 C1                 5043 	POP	BC
   1961 E8 1C              5044 	LDA	SP,28(SP)
   1963 C9                 5045 	RET
   1964                    5046 _end_update_value:
                           5047 	.globl	_draw_screen
   1964                    5048 _start_draw_screen:
   1964                    5049 _draw_screen:
                           5050 ;{
                           5051 ;  cls();
                           5052 ;  gotoxy(FIRST_X, TITLE_Y);
                           5053 ;  print(params[0].name);
                           5054 ;  for(i = 0; params[i+1].name; i++) {
   1964 3B                 5055 	DEC	SP
   1965 C5                 5056 	PUSH	BC
   1966 CD 00 00           5057 	CALL	_cls
   1969 3E 00              5058 	LD	A,#<0
   196B F5                 5059 	PUSH	AF
   196C 33                 5060 	INC	SP
   196D 3E 01              5061 	LD	A,#<1
   196F F5                 5062 	PUSH	AF
   1970 33                 5063 	INC	SP
   1971 CD 00 00           5064 	CALL	_gotoxy
   1974 E8 02              5065 	LDA	SP,2(SP)
   1976 FA 03 00           5066 	LD	A,(_params+1)
   1979 57                 5067 	LD	D,A
   197A FA 02 00           5068 	LD	A,(_params)
   197D 5F                 5069 	LD	E,A
   197E 62                 5070 	LD	H,D
   197F 6B                 5071 	LD	L,E
   1980 2A                 5072 	LD	A,(HL+)
   1981 56                 5073 	LD	D,(HL)
   1982 5F                 5074 	LD	E,A
   1983 D5                 5075 	PUSH	DE
   1984 CD 00 00           5076 	CALL	_print
   1987 E8 02              5077 	LDA	SP,2(SP)
   1989 F8 02              5078 	LDA	HL,2(SP)
   198B 36 00              5079 	LD	(HL),#<0
   198D C3 F9 19           5080 	JP	.L211
   1990                    5081 .L208:
                           5082 ;    gotoxy(FIRST_X, FIRST_Y+i);
                           5083 ;    print(params[i+1].name);
                           5084 ;    gotoxy(VAL_X, FIRST_Y+i);
                           5085 ;    println(current_value(mode, i), 10, UNSIGNED);
                           5086 ;  }
   1990 F8 02              5087 	LDA	HL,2(SP)
   1992 5E                 5088 	LD	E,(HL)
   1993 1C                 5089 	INC	E
   1994 1C                 5090 	INC	E
   1995 7B                 5091 	LD	A,E
   1996 F5                 5092 	PUSH	AF
   1997 33                 5093 	INC	SP
   1998 3E 01              5094 	LD	A,#<1
   199A F5                 5095 	PUSH	AF
   199B 33                 5096 	INC	SP
ASxxxx Assembler V01.75  (GameBoy Z80-like CPU), page 92.



   199C CD 00 00           5097 	CALL	_gotoxy
   199F E8 02              5098 	LDA	SP,2(SP)
   19A1 F8 02              5099 	LDA	HL,2(SP)
   19A3 5E                 5100 	LD	E,(HL)
   19A4 1C                 5101 	INC	E
   19A5 16 00              5102 	LD	D,#0
   19A7 CB 23              5103 	SLA	E
   19A9 CB 12              5104 	RL	D
   19AB CB 23              5105 	SLA	E
   19AD CB 12              5106 	RL	D
   19AF FA 03 00           5107 	LD	A,(_params+1)
   19B2 47                 5108 	LD	B,A
   19B3 FA 02 00           5109 	LD	A,(_params)
   19B6 4F                 5110 	LD	C,A
   19B7 7B                 5111 	LD	A,E
   19B8 81                 5112 	ADD	C
   19B9 5F                 5113 	LD	E,A
   19BA 7A                 5114 	LD	A,D
   19BB 88                 5115 	ADC	B
   19BC 57                 5116 	LD	D,A
   19BD 62                 5117 	LD	H,D
   19BE 6B                 5118 	LD	L,E
   19BF 2A                 5119 	LD	A,(HL+)
   19C0 56                 5120 	LD	D,(HL)
   19C1 5F                 5121 	LD	E,A
   19C2 D5                 5122 	PUSH	DE
   19C3 CD 00 00           5123 	CALL	_print
   19C6 E8 02              5124 	LDA	SP,2(SP)
   19C8 F8 02              5125 	LDA	HL,2(SP)
   19CA 5E                 5126 	LD	E,(HL)
   19CB 1C                 5127 	INC	E
   19CC 1C                 5128 	INC	E
   19CD 7B                 5129 	LD	A,E
   19CE F5                 5130 	PUSH	AF
   19CF 33                 5131 	INC	SP
   19D0 3E 0F              5132 	LD	A,#<15
   19D2 F5                 5133 	PUSH	AF
   19D3 33                 5134 	INC	SP
   19D4 CD 00 00           5135 	CALL	_gotoxy
   19D7 E8 02              5136 	LDA	SP,2(SP)
   19D9 F8 02              5137 	LDA	HL,2(SP)
   19DB 7E                 5138 	LD	A,(HL)
   19DC F5                 5139 	PUSH	AF
   19DD 33                 5140 	INC	SP
   19DE F8 06              5141 	LDA	HL,6(SP)
   19E0 7E                 5142 	LD	A,(HL)
   19E1 F5                 5143 	PUSH	AF
   19E2 33                 5144 	INC	SP
   19E3 CD 00 00           5145 	CALL	_current_value
   19E6 E8 02              5146 	LDA	SP,2(SP)
   19E8 3E 00              5147 	LD	A,#<0
   19EA F5                 5148 	PUSH	AF
   19EB 33                 5149 	INC	SP
   19EC 3E 0A              5150 	LD	A,#<10
   19EE F5                 5151 	PUSH	AF
   19EF 33                 5152 	INC	SP
ASxxxx Assembler V01.75  (GameBoy Z80-like CPU), page 93.



   19F0 D5                 5153 	PUSH	DE
   19F1 CD 00 00           5154 	CALL	_println
   19F4 E8 04              5155 	LDA	SP,4(SP)
   19F6                    5156 .L209:
                           5157 ;  for(i = 0; params[i+1].name; i++) {
   19F6 F8 02              5158 	LDA	HL,2(SP)
   19F8 34                 5159 	INC	(HL)
   19F9                    5160 .L211:
   19F9 F8 02              5161 	LDA	HL,2(SP)
   19FB 5E                 5162 	LD	E,(HL)
   19FC 1C                 5163 	INC	E
   19FD 16 00              5164 	LD	D,#0
   19FF CB 23              5165 	SLA	E
   1A01 CB 12              5166 	RL	D
   1A03 CB 23              5167 	SLA	E
   1A05 CB 12              5168 	RL	D
   1A07 FA 03 00           5169 	LD	A,(_params+1)
   1A0A 47                 5170 	LD	B,A
   1A0B FA 02 00           5171 	LD	A,(_params)
   1A0E 4F                 5172 	LD	C,A
   1A0F 7B                 5173 	LD	A,E
   1A10 81                 5174 	ADD	C
   1A11 5F                 5175 	LD	E,A
   1A12 7A                 5176 	LD	A,D
   1A13 88                 5177 	ADC	B
   1A14 57                 5178 	LD	D,A
   1A15 62                 5179 	LD	H,D
   1A16 6B                 5180 	LD	L,E
   1A17 2A                 5181 	LD	A,(HL+)
   1A18 56                 5182 	LD	D,(HL)
   1A19 5F                 5183 	LD	E,A
   1A1A FA F4 00           5184 	LD	A,(.L112+1)
   1A1D 47                 5185 	LD	B,A
   1A1E FA F3 00           5186 	LD	A,(.L112)
   1A21 4F                 5187 	LD	C,A
   1A22 BB                 5188 	CP	E
   1A23 C2 90 19           5189 	JP	NZ,.L208
   1A26 78                 5190 	LD	A,B
   1A27 BA                 5191 	CP	D
   1A28 C2 90 19           5192 	JP	NZ,.L208
   1A2B                    5193 .L212:
                           5194 ;  return i-1;
   1A2B F8 02              5195 	LDA	HL,2(SP)
   1A2D 5E                 5196 	LD	E,(HL)
   1A2E 1D                 5197 	DEC	E
   1A2F                    5198 .L207:
   1A2F C1                 5199 	POP	BC
   1A30 33                 5200 	INC	SP
   1A31 C9                 5201 	RET
   1A32                    5202 _end_draw_screen:
                           5203 	.globl	_play_music
   1A32                    5204 _start_play_music:
   1A32                    5205 _play_music:
                           5206 ;{
                           5207 ;  UBYTE i = 0;
   1A32 3B                 5208 	DEC	SP
ASxxxx Assembler V01.75  (GameBoy Z80-like CPU), page 94.



   1A33 F8 00              5209 	LDA	HL,0(SP)
   1A35 36 00              5210 	LD	(HL),#<0
   1A37 C3 A0 1A           5211 	JP	.L215
   1A3A                    5212 .L214:
                           5213 ;  while(music[i] != END) {
                           5214 ;    if(music[i] != SILENCE) {
                           5215 ;      update_value(mode, FREQUENCY, frequencies[music[i]]);
                           5216 ;      update_value(mode, PLAY, 1);
                           5217 ;    }
   1A3A F8 00              5218 	LDA	HL,0(SP)
   1A3C 5E                 5219 	LD	E,(HL)
   1A3D 7B                 5220 	LD	A,E
   1A3E C6 90              5221 	ADD	#<_music
   1A40 5F                 5222 	LD	E,A
   1A41 3E 00              5223 	LD	A,#0x00 ; LD does not change flags!!!
   1A43 CE 00              5224 	ADC	#>_music
   1A45 57                 5225 	LD	D,A
   1A46 1A                 5226 	LD	A,(DE)
   1A47 FE 48              5227 	CP	#<72
   1A49 CA 8F 1A           5228 	JP	Z,.L217
   1A4C F8 00              5229 	LDA	HL,0(SP)
   1A4E 5E                 5230 	LD	E,(HL)
   1A4F 7B                 5231 	LD	A,E
   1A50 C6 90              5232 	ADD	#<_music
   1A52 5F                 5233 	LD	E,A
   1A53 3E 00              5234 	LD	A,#0x00 ; LD does not change flags!!!
   1A55 CE 00              5235 	ADC	#>_music
   1A57 57                 5236 	LD	D,A
   1A58 1A                 5237 	LD	A,(DE)
   1A59 5F                 5238 	LD	E,A
   1A5A 16 00              5239 	LD	D,#0
   1A5C CB 23              5240 	SLA	E
   1A5E CB 12              5241 	RL	D
   1A60 21 00 00           5242 	LD	HL,#_frequencies
   1A63 19                 5243 	ADD	HL,DE
   1A64 54                 5244 	LD	D,H
   1A65 5D                 5245 	LD	E,L
   1A66 2A                 5246 	LD	A,(HL+)
   1A67 56                 5247 	LD	D,(HL)
   1A68 5F                 5248 	LD	E,A
   1A69 D5                 5249 	PUSH	DE
   1A6A 3E 21              5250 	LD	A,#<33
   1A6C F5                 5251 	PUSH	AF
   1A6D 33                 5252 	INC	SP
   1A6E F8 06              5253 	LDA	HL,6(SP)
   1A70 7E                 5254 	LD	A,(HL)
   1A71 F5                 5255 	PUSH	AF
   1A72 33                 5256 	INC	SP
   1A73 CD AA 06           5257 	CALL	_update_value
   1A76 E8 04              5258 	LDA	SP,4(SP)
   1A78 FA F2 00           5259 	LD	A,(.L219+1)
   1A7B 57                 5260 	LD	D,A
   1A7C FA F1 00           5261 	LD	A,(.L219)
   1A7F 5F                 5262 	LD	E,A
   1A80 D5                 5263 	PUSH	DE
   1A81 3E 20              5264 	LD	A,#<32
ASxxxx Assembler V01.75  (GameBoy Z80-like CPU), page 95.



   1A83 F5                 5265 	PUSH	AF
   1A84 33                 5266 	INC	SP
   1A85 F8 06              5267 	LDA	HL,6(SP)
   1A87 7E                 5268 	LD	A,(HL)
   1A88 F5                 5269 	PUSH	AF
   1A89 33                 5270 	INC	SP
   1A8A CD AA 06           5271 	CALL	_update_value
   1A8D E8 04              5272 	LDA	SP,4(SP)
   1A8F                    5273 .L217:
                           5274 ;    delay(500);
                           5275 ;    i++;
                           5276 ;  }
   1A8F FA F0 00           5277 	LD	A,(.L220+1)
   1A92 57                 5278 	LD	D,A
   1A93 FA EF 00           5279 	LD	A,(.L220)
   1A96 5F                 5280 	LD	E,A
   1A97 D5                 5281 	PUSH	DE
   1A98 CD 00 00           5282 	CALL	_delay
   1A9B E8 02              5283 	LDA	SP,2(SP)
   1A9D F8 00              5284 	LDA	HL,0(SP)
   1A9F 34                 5285 	INC	(HL)
   1AA0                    5286 .L215:
                           5287 ;  while(music[i] != END) {
                           5288 ;}
   1AA0 F8 00              5289 	LDA	HL,0(SP)
   1AA2 5E                 5290 	LD	E,(HL)
   1AA3 7B                 5291 	LD	A,E
   1AA4 C6 90              5292 	ADD	#<_music
   1AA6 5F                 5293 	LD	E,A
   1AA7 3E 00              5294 	LD	A,#0x00 ; LD does not change flags!!!
   1AA9 CE 00              5295 	ADC	#>_music
   1AAB 57                 5296 	LD	D,A
   1AAC 1A                 5297 	LD	A,(DE)
   1AAD FE 49              5298 	CP	#<73
   1AAF C2 3A 1A           5299 	JP	NZ,.L214
   1AB2                    5300 .L213:
   1AB2 33                 5301 	INC	SP
   1AB3 C9                 5302 	RET
   1AB4                    5303 _end_play_music:
                           5304 	.globl	_dump_registers
   1AB4                    5305 _start_dump_registers:
   1AB4                    5306 _dump_registers:
                           5307 ;{
                           5308 ;  cls();
                           5309 ;  gotoxy(FIRST_X, TITLE_Y);
                           5310 ;  print("Register Dump");
                           5311 ;  for(i = 0, j = 0; i <= 0x16; i++, j++) {
   1AB4 E8 FD              5312 	LDA	SP,-3(SP)
   1AB6 C5                 5313 	PUSH	BC
   1AB7 CD 00 00           5314 	CALL	_cls
   1ABA 3E 00              5315 	LD	A,#<0
   1ABC F5                 5316 	PUSH	AF
   1ABD 33                 5317 	INC	SP
   1ABE 3E 01              5318 	LD	A,#<1
   1AC0 F5                 5319 	PUSH	AF
   1AC1 33                 5320 	INC	SP
ASxxxx Assembler V01.75  (GameBoy Z80-like CPU), page 96.



   1AC2 CD 00 00           5321 	CALL	_gotoxy
   1AC5 E8 02              5322 	LDA	SP,2(SP)
   1AC7 11 E1 00           5323 	LD	DE,#.L222
   1ACA D5                 5324 	PUSH	DE
   1ACB CD 00 00           5325 	CALL	_print
   1ACE E8 02              5326 	LDA	SP,2(SP)
   1AD0 F8 04              5327 	LDA	HL,4(SP)
   1AD2 36 00              5328 	LD	(HL),#<0
   1AD4 F8 03              5329 	LDA	HL,3(SP)
   1AD6 36 00              5330 	LD	(HL),#<0
   1AD8 C3 C7 1B           5331 	JP	.L226
   1ADB                    5332 .L223:
                           5333 ;    if(i == 0x05 || i == 0x0F)
   1ADB F8 04              5334 	LDA	HL,4(SP)
   1ADD 5E                 5335 	LD	E,(HL)
   1ADE 7B                 5336 	LD	A,E
   1ADF FE 05              5337 	CP	#<5
   1AE1 CA EA 1A           5338 	JP	Z,.L229
   1AE4 7B                 5339 	LD	A,E
   1AE5 FE 0F              5340 	CP	#<15
   1AE7 C2 ED 1A           5341 	JP	NZ,.L227
   1AEA                    5342 .L229:
                           5343 ;      i++;
   1AEA F8 04              5344 	LDA	HL,4(SP)
   1AEC 34                 5345 	INC	(HL)
   1AED                    5346 .L227:
                           5347 ;    if(j%2 == 0) {
                           5348 ;      gotoxy(FIRST_X, FIRST_Y+j/2);
                           5349 ;      print("0xFF");
                           5350 ;    } else {
   1AED F8 03              5351 	LDA	HL,3(SP)
   1AEF 5E                 5352 	LD	E,(HL)
   1AF0 3E 01              5353 	LD	A,#<1
   1AF2 A3                 5354 	AND	E
   1AF3 5F                 5355 	LD	E,A
   1AF4 FE 00              5356 	CP	#<0
   1AF6 C2 18 1B           5357 	JP	NZ,.L230
   1AF9 F8 03              5358 	LDA	HL,3(SP)
   1AFB 5E                 5359 	LD	E,(HL)
   1AFC CB 3B              5360 	SRL	E
   1AFE 1C                 5361 	INC	E
   1AFF 1C                 5362 	INC	E
   1B00 7B                 5363 	LD	A,E
   1B01 F5                 5364 	PUSH	AF
   1B02 33                 5365 	INC	SP
   1B03 3E 01              5366 	LD	A,#<1
   1B05 F5                 5367 	PUSH	AF
   1B06 33                 5368 	INC	SP
   1B07 CD 00 00           5369 	CALL	_gotoxy
   1B0A E8 02              5370 	LDA	SP,2(SP)
   1B0C 11 DC 00           5371 	LD	DE,#.L232
   1B0F D5                 5372 	PUSH	DE
   1B10 CD 00 00           5373 	CALL	_print
   1B13 E8 02              5374 	LDA	SP,2(SP)
   1B15 C3 33 1B           5375 	JP	.L231
   1B18                    5376 .L230:
ASxxxx Assembler V01.75  (GameBoy Z80-like CPU), page 97.



                           5377 ;      gotoxy(FIRST_X+6, FIRST_Y+j/2);
                           5378 ;      putchar('-');
                           5379 ;    }
   1B18 F8 03              5380 	LDA	HL,3(SP)
   1B1A 5E                 5381 	LD	E,(HL)
   1B1B CB 3B              5382 	SRL	E
   1B1D 1C                 5383 	INC	E
   1B1E 1C                 5384 	INC	E
   1B1F 7B                 5385 	LD	A,E
   1B20 F5                 5386 	PUSH	AF
   1B21 33                 5387 	INC	SP
   1B22 3E 07              5388 	LD	A,#<7
   1B24 F5                 5389 	PUSH	AF
   1B25 33                 5390 	INC	SP
   1B26 CD 00 00           5391 	CALL	_gotoxy
   1B29 E8 02              5392 	LDA	SP,2(SP)
   1B2B 3E 2D              5393 	LD	A,#<45
   1B2D F5                 5394 	PUSH	AF
   1B2E 33                 5395 	INC	SP
   1B2F CD 00 00           5396 	CALL	_putchar
   1B32 33                 5397 	INC	SP
   1B33                    5398 .L231:
                           5399 ;    printn(i+0x10, 16, UNSIGNED);
                           5400 ;    if(j%2 == 0) {
                           5401 ;      gotoxy(VAL_X, FIRST_Y+j/2);
                           5402 ;    } else {
   1B33 3E 00              5403 	LD	A,#<0
   1B35 F5                 5404 	PUSH	AF
   1B36 33                 5405 	INC	SP
   1B37 3E 10              5406 	LD	A,#<16
   1B39 F5                 5407 	PUSH	AF
   1B3A 33                 5408 	INC	SP
   1B3B F8 06              5409 	LDA	HL,6(SP)
   1B3D 5E                 5410 	LD	E,(HL)
   1B3E 7B                 5411 	LD	A,E
   1B3F C6 10              5412 	ADD	#<16
   1B41 5F                 5413 	LD	E,A
   1B42 F5                 5414 	PUSH	AF
   1B43 33                 5415 	INC	SP
   1B44 CD 00 00           5416 	CALL	_printn
   1B47 E8 03              5417 	LDA	SP,3(SP)
   1B49 F8 03              5418 	LDA	HL,3(SP)
   1B4B 5E                 5419 	LD	E,(HL)
   1B4C 3E 01              5420 	LD	A,#<1
   1B4E A3                 5421 	AND	E
   1B4F 5F                 5422 	LD	E,A
   1B50 FE 00              5423 	CP	#<0
   1B52 C2 6B 1B           5424 	JP	NZ,.L233
   1B55 F8 03              5425 	LDA	HL,3(SP)
   1B57 5E                 5426 	LD	E,(HL)
   1B58 CB 3B              5427 	SRL	E
   1B5A 1C                 5428 	INC	E
   1B5B 1C                 5429 	INC	E
   1B5C 7B                 5430 	LD	A,E
   1B5D F5                 5431 	PUSH	AF
   1B5E 33                 5432 	INC	SP
ASxxxx Assembler V01.75  (GameBoy Z80-like CPU), page 98.



   1B5F 3E 0F              5433 	LD	A,#<15
   1B61 F5                 5434 	PUSH	AF
   1B62 33                 5435 	INC	SP
   1B63 CD 00 00           5436 	CALL	_gotoxy
   1B66 E8 02              5437 	LDA	SP,2(SP)
   1B68 C3 86 1B           5438 	JP	.L234
   1B6B                    5439 .L233:
                           5440 ;      gotoxy(VAL_X+2, FIRST_Y+j/2);
                           5441 ;      putchar('-');
                           5442 ;    }
   1B6B F8 03              5443 	LDA	HL,3(SP)
   1B6D 5E                 5444 	LD	E,(HL)
   1B6E CB 3B              5445 	SRL	E
   1B70 1C                 5446 	INC	E
   1B71 1C                 5447 	INC	E
   1B72 7B                 5448 	LD	A,E
   1B73 F5                 5449 	PUSH	AF
   1B74 33                 5450 	INC	SP
   1B75 3E 11              5451 	LD	A,#<17
   1B77 F5                 5452 	PUSH	AF
   1B78 33                 5453 	INC	SP
   1B79 CD 00 00           5454 	CALL	_gotoxy
   1B7C E8 02              5455 	LDA	SP,2(SP)
   1B7E 3E 2D              5456 	LD	A,#<45
   1B80 F5                 5457 	PUSH	AF
   1B81 33                 5458 	INC	SP
   1B82 CD 00 00           5459 	CALL	_putchar
   1B85 33                 5460 	INC	SP
   1B86                    5461 .L234:
                           5462 ;    reg = ((UBYTE *)soundReg)[i];
                           5463 ;    if(!(reg & 0xF0U)) putchar('0');
   1B86 F8 04              5464 	LDA	HL,4(SP)
   1B88 5E                 5465 	LD	E,(HL)
   1B89 FA 01 00           5466 	LD	A,(_soundReg+1)
   1B8C 47                 5467 	LD	B,A
   1B8D FA 00 00           5468 	LD	A,(_soundReg)
   1B90 4F                 5469 	LD	C,A
   1B91 7B                 5470 	LD	A,E
   1B92 81                 5471 	ADD	C
   1B93 5F                 5472 	LD	E,A
   1B94 3E 00              5473 	LD	A,#0x00 ; LD does not change flags!!!
   1B96 88                 5474 	ADC	B
   1B97 57                 5475 	LD	D,A
   1B98 1A                 5476 	LD	A,(DE)
   1B99 5F                 5477 	LD	E,A
   1B9A F8 02              5478 	LDA	HL,2(SP)
   1B9C 73                 5479 	LD	(HL),E
   1B9D 3E F0              5480 	LD	A,#<240
   1B9F A3                 5481 	AND	E
   1BA0 5F                 5482 	LD	E,A
   1BA1 FE 00              5483 	CP	#<0
   1BA3 C2 AE 1B           5484 	JP	NZ,.L235
   1BA6 3E 30              5485 	LD	A,#<48
   1BA8 F5                 5486 	PUSH	AF
   1BA9 33                 5487 	INC	SP
   1BAA CD 00 00           5488 	CALL	_putchar
ASxxxx Assembler V01.75  (GameBoy Z80-like CPU), page 99.



   1BAD 33                 5489 	INC	SP
   1BAE                    5490 .L235:
                           5491 ;    printn(reg, 16, UNSIGNED);
                           5492 ;  }
   1BAE 3E 00              5493 	LD	A,#<0
   1BB0 F5                 5494 	PUSH	AF
   1BB1 33                 5495 	INC	SP
   1BB2 3E 10              5496 	LD	A,#<16
   1BB4 F5                 5497 	PUSH	AF
   1BB5 33                 5498 	INC	SP
   1BB6 F8 04              5499 	LDA	HL,4(SP)
   1BB8 5E                 5500 	LD	E,(HL)
   1BB9 7B                 5501 	LD	A,E
   1BBA F5                 5502 	PUSH	AF
   1BBB 33                 5503 	INC	SP
   1BBC CD 00 00           5504 	CALL	_printn
   1BBF E8 03              5505 	LDA	SP,3(SP)
   1BC1                    5506 .L224:
                           5507 ;  for(i = 0, j = 0; i <= 0x16; i++, j++) {
   1BC1 F8 04              5508 	LDA	HL,4(SP)
   1BC3 34                 5509 	INC	(HL)
   1BC4 F8 03              5510 	LDA	HL,3(SP)
   1BC6 34                 5511 	INC	(HL)
   1BC7                    5512 .L226:
                           5513 ;}
   1BC7 F8 04              5514 	LDA	HL,4(SP)
   1BC9 7E                 5515 	LD	A,(HL)
   1BCA 3E 16              5516 	LD	A,#<22
   1BCC BE                 5517 	CP	(HL)
   1BCD D2 DB 1A           5518 	JP	NC,.L223
   1BD0                    5519 .L221:
   1BD0 C1                 5520 	POP	BC
   1BD1 E8 03              5521 	LDA	SP,3(SP)
   1BD3 C9                 5522 	RET
   1BD4                    5523 _end_dump_registers:
                           5524 	.globl	_wait_event
   1BD4                    5525 _start_wait_event:
   1BD4                    5526 _wait_event:
                           5527 ;{
   1BD4 E8 F5              5528 	LDA	SP,-11(SP)
   1BD6 C5                 5529 	PUSH	BC
   1BD7 C3 F2 1F           5530 	JP	.L239
   1BDA                    5531 .L238:
                           5532 ;  while(1) {
                           5533 ;    params = params_array[mode];
                           5534 ;    last_y = draw_screen(mode) + FIRST_Y;
                           5535 ;    y = FIRST_Y;
                           5536 ;    gotoxy(ARROW_X, y);
                           5537 ;    setchar(ARROW_CHAR);
   1BDA F8 0F              5538 	LDA	HL,15(SP)
   1BDC 5E                 5539 	LD	E,(HL)
   1BDD 16 00              5540 	LD	D,#0
   1BDF CB 23              5541 	SLA	E
   1BE1 CB 12              5542 	RL	D
   1BE3 21 A5 01           5543 	LD	HL,#_params_array
   1BE6 19                 5544 	ADD	HL,DE
ASxxxx Assembler V01.75  (GameBoy Z80-like CPU), page 100.



   1BE7 54                 5545 	LD	D,H
   1BE8 5D                 5546 	LD	E,L
   1BE9 2A                 5547 	LD	A,(HL+)
   1BEA 56                 5548 	LD	D,(HL)
   1BEB 5F                 5549 	LD	E,A
   1BEC EA 02 00           5550 	LD	(_params),A
   1BEF 7A                 5551 	LD	A,D
   1BF0 EA 03 00           5552 	LD	(_params+1),A
   1BF3 F8 0F              5553 	LDA	HL,15(SP)
   1BF5 7E                 5554 	LD	A,(HL)
   1BF6 F5                 5555 	PUSH	AF
   1BF7 33                 5556 	INC	SP
   1BF8 CD 64 19           5557 	CALL	_draw_screen
   1BFB 33                 5558 	INC	SP
   1BFC 1C                 5559 	INC	E
   1BFD 1C                 5560 	INC	E
   1BFE F8 08              5561 	LDA	HL,8(SP)
   1C00 73                 5562 	LD	(HL),E
   1C01 F8 0C              5563 	LDA	HL,12(SP)
   1C03 36 02              5564 	LD	(HL),#<2
   1C05 F8 0C              5565 	LDA	HL,12(SP)
   1C07 7E                 5566 	LD	A,(HL)
   1C08 F5                 5567 	PUSH	AF
   1C09 33                 5568 	INC	SP
   1C0A 3E 00              5569 	LD	A,#<0
   1C0C F5                 5570 	PUSH	AF
   1C0D 33                 5571 	INC	SP
   1C0E CD 00 00           5572 	CALL	_gotoxy
   1C11 E8 02              5573 	LDA	SP,2(SP)
   1C13 3E 03              5574 	LD	A,#<3
   1C15 F5                 5575 	PUSH	AF
   1C16 33                 5576 	INC	SP
   1C17 CD 00 00           5577 	CALL	_setchar
   1C1A 33                 5578 	INC	SP
   1C1B C3 EF 1F           5579 	JP	.L242
   1C1E                    5580 .L241:
                           5581 ;    while(1) {
                           5582 ;      input = joypad();
                           5583 ;      if(input & J_UP) {
                           5584 ;	gotoxy(ARROW_X, y); setchar(SPACE_CHAR);
                           5585 ;	if(--y < FIRST_Y)
                           5586 ;	  y = last_y;
   1C1E CD 00 00           5587 	CALL	_joypad
   1C21 F8 0B              5588 	LDA	HL,11(SP)
   1C23 73                 5589 	LD	(HL),E
   1C24 3E 04              5590 	LD	A,#<4
   1C26 A3                 5591 	AND	E
   1C27 5F                 5592 	LD	E,A
   1C28 FE 00              5593 	CP	#<0
   1C2A CA 6F 1C           5594 	JP	Z,.L244
   1C2D F8 0C              5595 	LDA	HL,12(SP)
   1C2F 7E                 5596 	LD	A,(HL)
   1C30 F5                 5597 	PUSH	AF
   1C31 33                 5598 	INC	SP
   1C32 3E 00              5599 	LD	A,#<0
   1C34 F5                 5600 	PUSH	AF
ASxxxx Assembler V01.75  (GameBoy Z80-like CPU), page 101.



   1C35 33                 5601 	INC	SP
   1C36 CD 00 00           5602 	CALL	_gotoxy
   1C39 E8 02              5603 	LDA	SP,2(SP)
   1C3B 3E 20              5604 	LD	A,#<32
   1C3D F5                 5605 	PUSH	AF
   1C3E 33                 5606 	INC	SP
   1C3F CD 00 00           5607 	CALL	_setchar
   1C42 33                 5608 	INC	SP
   1C43 F8 0C              5609 	LDA	HL,12(SP)
   1C45 5E                 5610 	LD	E,(HL)
   1C46 1D                 5611 	DEC	E
   1C47 F8 0C              5612 	LDA	HL,12(SP)
   1C49 73                 5613 	LD	(HL),E
   1C4A 7B                 5614 	LD	A,E
   1C4B FE 02              5615 	CP	#<2
   1C4D D2 56 1C           5616 	JP	NC,.L246
   1C50 F8 08              5617 	LDA	HL,8(SP)
   1C52 5E                 5618 	LD	E,(HL)
   1C53 F8 0C              5619 	LDA	HL,12(SP)
   1C55 73                 5620 	LD	(HL),E
   1C56                    5621 .L246:
                           5622 ;	gotoxy(ARROW_X, y); setchar(ARROW_CHAR);
                           5623 ;      } else if(input & J_DOWN) {
   1C56 F8 0C              5624 	LDA	HL,12(SP)
   1C58 7E                 5625 	LD	A,(HL)
   1C59 F5                 5626 	PUSH	AF
   1C5A 33                 5627 	INC	SP
   1C5B 3E 00              5628 	LD	A,#<0
   1C5D F5                 5629 	PUSH	AF
   1C5E 33                 5630 	INC	SP
   1C5F CD 00 00           5631 	CALL	_gotoxy
   1C62 E8 02              5632 	LDA	SP,2(SP)
   1C64 3E 03              5633 	LD	A,#<3
   1C66 F5                 5634 	PUSH	AF
   1C67 33                 5635 	INC	SP
   1C68 CD 00 00           5636 	CALL	_setchar
   1C6B 33                 5637 	INC	SP
   1C6C C3 E1 1F           5638 	JP	.L245
   1C6F                    5639 .L244:
                           5640 ;	gotoxy(ARROW_X, y); setchar(SPACE_CHAR);
                           5641 ;	if(++y > last_y)
                           5642 ;	  y = FIRST_Y;
   1C6F F8 0B              5643 	LDA	HL,11(SP)
   1C71 5E                 5644 	LD	E,(HL)
   1C72 3E 08              5645 	LD	A,#<8
   1C74 A3                 5646 	AND	E
   1C75 5F                 5647 	LD	E,A
   1C76 FE 00              5648 	CP	#<0
   1C78 CA BC 1C           5649 	JP	Z,.L248
   1C7B F8 0C              5650 	LDA	HL,12(SP)
   1C7D 7E                 5651 	LD	A,(HL)
   1C7E F5                 5652 	PUSH	AF
   1C7F 33                 5653 	INC	SP
   1C80 3E 00              5654 	LD	A,#<0
   1C82 F5                 5655 	PUSH	AF
   1C83 33                 5656 	INC	SP
ASxxxx Assembler V01.75  (GameBoy Z80-like CPU), page 102.



   1C84 CD 00 00           5657 	CALL	_gotoxy
   1C87 E8 02              5658 	LDA	SP,2(SP)
   1C89 3E 20              5659 	LD	A,#<32
   1C8B F5                 5660 	PUSH	AF
   1C8C 33                 5661 	INC	SP
   1C8D CD 00 00           5662 	CALL	_setchar
   1C90 33                 5663 	INC	SP
   1C91 F8 0C              5664 	LDA	HL,12(SP)
   1C93 5E                 5665 	LD	E,(HL)
   1C94 1C                 5666 	INC	E
   1C95 F8 0C              5667 	LDA	HL,12(SP)
   1C97 73                 5668 	LD	(HL),E
   1C98 F8 08              5669 	LDA	HL,8(SP)
   1C9A 7E                 5670 	LD	A,(HL)
   1C9B BB                 5671 	CP	E
   1C9C D2 A3 1C           5672 	JP	NC,.L250
   1C9F F8 0C              5673 	LDA	HL,12(SP)
   1CA1 36 02              5674 	LD	(HL),#<2
   1CA3                    5675 .L250:
                           5676 ;	gotoxy(ARROW_X, y); setchar(ARROW_CHAR);
                           5677 ;      } else if(input & J_LEFT) {
   1CA3 F8 0C              5678 	LDA	HL,12(SP)
   1CA5 7E                 5679 	LD	A,(HL)
   1CA6 F5                 5680 	PUSH	AF
   1CA7 33                 5681 	INC	SP
   1CA8 3E 00              5682 	LD	A,#<0
   1CAA F5                 5683 	PUSH	AF
   1CAB 33                 5684 	INC	SP
   1CAC CD 00 00           5685 	CALL	_gotoxy
   1CAF E8 02              5686 	LDA	SP,2(SP)
   1CB1 3E 03              5687 	LD	A,#<3
   1CB3 F5                 5688 	PUSH	AF
   1CB4 33                 5689 	INC	SP
   1CB5 CD 00 00           5690 	CALL	_setchar
   1CB8 33                 5691 	INC	SP
   1CB9 C3 E1 1F           5692 	JP	.L249
   1CBC                    5693 .L248:
                           5694 ;	l = current_value(mode, y-FIRST_Y);
                           5695 ;	if(l > 0) {
   1CBC F8 0B              5696 	LDA	HL,11(SP)
   1CBE 5E                 5697 	LD	E,(HL)
   1CBF 3E 02              5698 	LD	A,#<2
   1CC1 A3                 5699 	AND	E
   1CC2 5F                 5700 	LD	E,A
   1CC3 FE 00              5701 	CP	#<0
   1CC5 CA CD 1D           5702 	JP	Z,.L252
   1CC8 F8 0C              5703 	LDA	HL,12(SP)
   1CCA 5E                 5704 	LD	E,(HL)
   1CCB 1D                 5705 	DEC	E
   1CCC 1D                 5706 	DEC	E
   1CCD 7B                 5707 	LD	A,E
   1CCE F5                 5708 	PUSH	AF
   1CCF 33                 5709 	INC	SP
   1CD0 F8 10              5710 	LDA	HL,16(SP)
   1CD2 7E                 5711 	LD	A,(HL)
   1CD3 F5                 5712 	PUSH	AF
ASxxxx Assembler V01.75  (GameBoy Z80-like CPU), page 103.



   1CD4 33                 5713 	INC	SP
   1CD5 CD 00 00           5714 	CALL	_current_value
   1CD8 E8 02              5715 	LDA	SP,2(SP)
   1CDA F8 09              5716 	LDA	HL,9(SP)
   1CDC 7B                 5717 	LD	A,E
   1CDD 22                 5718 	LD	(HL+),A
   1CDE 72                 5719 	LD	(HL),D
   1CDF FA F4 00           5720 	LD	A,(.L112+1)
   1CE2 47                 5721 	LD	B,A
   1CE3 FA F3 00           5722 	LD	A,(.L112)
   1CE6 4F                 5723 	LD	C,A
   1CE7 BB                 5724 	CP	E
   1CE8 20 05              5725 	JR	NZ,.L285
   1CEA 78                 5726 	LD	A,B
   1CEB BA                 5727 	CP	D
   1CEC CA E1 1F           5728 	JP	Z,.L253
   1CEF                    5729 .L285:
                           5730 ;	  if(input & J_A)
                           5731 ;	    l = MAX(l, 10) - 10;
   1CEF F8 0B              5732 	LDA	HL,11(SP)
   1CF1 5E                 5733 	LD	E,(HL)
   1CF2 3E 10              5734 	LD	A,#<16
   1CF4 A3                 5735 	AND	E
   1CF5 5F                 5736 	LD	E,A
   1CF6 FE 00              5737 	CP	#<0
   1CF8 CA 46 1D           5738 	JP	Z,.L256
   1CFB F8 09              5739 	LDA	HL,9(SP)
   1CFD 2A                 5740 	LD	A,(HL+)
   1CFE 56                 5741 	LD	D,(HL)
   1CFF 5F                 5742 	LD	E,A
   1D00 FA DB 00           5743 	LD	A,(.L261+1)
   1D03 47                 5744 	LD	B,A
   1D04 FA DA 00           5745 	LD	A,(.L261)
   1D07 4F                 5746 	LD	C,A
   1D08 7A                 5747 	LD	A,D
   1D09 B8                 5748 	CP	B
   1D0A 20 02              5749 	JR	NZ,.L286
   1D0C 7B                 5750 	LD	A,E
   1D0D B9                 5751 	CP	C
   1D0E                    5752 .L286:
   1D0E D2 21 1D           5753 	JP	NC,.L259
   1D11 FA DB 00           5754 	LD	A,(.L261+1)
   1D14 57                 5755 	LD	D,A
   1D15 FA DA 00           5756 	LD	A,(.L261)
   1D18 5F                 5757 	LD	E,A
   1D19 F8 06              5758 	LDA	HL,6(SP)
   1D1B 7B                 5759 	LD	A,E
   1D1C 22                 5760 	LD	(HL+),A
   1D1D 72                 5761 	LD	(HL),D
   1D1E C3 2B 1D           5762 	JP	.L260
   1D21                    5763 .L259:
   1D21 F8 09              5764 	LDA	HL,9(SP)
   1D23 2A                 5765 	LD	A,(HL+)
   1D24 56                 5766 	LD	D,(HL)
   1D25 5F                 5767 	LD	E,A
   1D26 F8 06              5768 	LDA	HL,6(SP)
ASxxxx Assembler V01.75  (GameBoy Z80-like CPU), page 104.



   1D28 7B                 5769 	LD	A,E
   1D29 22                 5770 	LD	(HL+),A
   1D2A 72                 5771 	LD	(HL),D
   1D2B                    5772 .L260:
   1D2B F8 06              5773 	LDA	HL,6(SP)
   1D2D 2A                 5774 	LD	A,(HL+)
   1D2E 56                 5775 	LD	D,(HL)
   1D2F 5F                 5776 	LD	E,A
   1D30 FA DB 00           5777 	LD	A,(.L261+1)
   1D33 47                 5778 	LD	B,A
   1D34 FA DA 00           5779 	LD	A,(.L261)
   1D37 4F                 5780 	LD	C,A
   1D38 7B                 5781 	LD	A,E
   1D39 91                 5782 	SUB	C
   1D3A 5F                 5783 	LD	E,A
   1D3B 7A                 5784 	LD	A,D
   1D3C 98                 5785 	SBC	B
   1D3D 57                 5786 	LD	D,A
   1D3E F8 09              5787 	LDA	HL,9(SP)
   1D40 7B                 5788 	LD	A,E
   1D41 22                 5789 	LD	(HL+),A
   1D42 72                 5790 	LD	(HL),D
   1D43 C3 7A 1D           5791 	JP	.L257
   1D46                    5792 .L256:
                           5793 ;	  else if(input & J_B)
                           5794 ;	    l = 0;
   1D46 F8 0B              5795 	LDA	HL,11(SP)
   1D48 5E                 5796 	LD	E,(HL)
   1D49 3E 20              5797 	LD	A,#<32
   1D4B A3                 5798 	AND	E
   1D4C 5F                 5799 	LD	E,A
   1D4D FE 00              5800 	CP	#<0
   1D4F CA 62 1D           5801 	JP	Z,.L262
   1D52 FA F4 00           5802 	LD	A,(.L112+1)
   1D55 57                 5803 	LD	D,A
   1D56 FA F3 00           5804 	LD	A,(.L112)
   1D59 5F                 5805 	LD	E,A
   1D5A F8 09              5806 	LDA	HL,9(SP)
   1D5C 7B                 5807 	LD	A,E
   1D5D 22                 5808 	LD	(HL+),A
   1D5E 72                 5809 	LD	(HL),D
   1D5F C3 7A 1D           5810 	JP	.L263
   1D62                    5811 .L262:
                           5812 ;	    l--;
   1D62 F8 09              5813 	LDA	HL,9(SP)
   1D64 2A                 5814 	LD	A,(HL+)
   1D65 56                 5815 	LD	D,(HL)
   1D66 5F                 5816 	LD	E,A
   1D67 FA F2 00           5817 	LD	A,(.L219+1)
   1D6A 47                 5818 	LD	B,A
   1D6B FA F1 00           5819 	LD	A,(.L219)
   1D6E 4F                 5820 	LD	C,A
   1D6F 7B                 5821 	LD	A,E
   1D70 91                 5822 	SUB	C
   1D71 5F                 5823 	LD	E,A
   1D72 7A                 5824 	LD	A,D
ASxxxx Assembler V01.75  (GameBoy Z80-like CPU), page 105.



   1D73 98                 5825 	SBC	B
   1D74 57                 5826 	LD	D,A
   1D75 F8 09              5827 	LDA	HL,9(SP)
   1D77 7B                 5828 	LD	A,E
   1D78 22                 5829 	LD	(HL+),A
   1D79 72                 5830 	LD	(HL),D
   1D7A                    5831 .L263:
   1D7A                    5832 .L257:
                           5833 ;	  update_value(mode, y-FIRST_Y, l);
                           5834 ;	  gotoxy(VAL_X, y); print("    ");
                           5835 ;	  gotoxy(VAL_X, y); println(l, 10, UNSIGNED);
                           5836 ;	}
                           5837 ;      } else if(input & J_RIGHT) {
   1D7A F8 09              5838 	LDA	HL,9(SP)
   1D7C 2A                 5839 	LD	A,(HL+)
   1D7D 56                 5840 	LD	D,(HL)
   1D7E 5F                 5841 	LD	E,A
   1D7F D5                 5842 	PUSH	DE
   1D80 F8 0E              5843 	LDA	HL,14(SP)
   1D82 5E                 5844 	LD	E,(HL)
   1D83 1D                 5845 	DEC	E
   1D84 1D                 5846 	DEC	E
   1D85 7B                 5847 	LD	A,E
   1D86 F5                 5848 	PUSH	AF
   1D87 33                 5849 	INC	SP
   1D88 F8 12              5850 	LDA	HL,18(SP)
   1D8A 7E                 5851 	LD	A,(HL)
   1D8B F5                 5852 	PUSH	AF
   1D8C 33                 5853 	INC	SP
   1D8D CD AA 06           5854 	CALL	_update_value
   1D90 E8 04              5855 	LDA	SP,4(SP)
   1D92 F8 0C              5856 	LDA	HL,12(SP)
   1D94 7E                 5857 	LD	A,(HL)
   1D95 F5                 5858 	PUSH	AF
   1D96 33                 5859 	INC	SP
   1D97 3E 0F              5860 	LD	A,#<15
   1D99 F5                 5861 	PUSH	AF
   1D9A 33                 5862 	INC	SP
   1D9B CD 00 00           5863 	CALL	_gotoxy
   1D9E E8 02              5864 	LDA	SP,2(SP)
   1DA0 11 D5 00           5865 	LD	DE,#.L264
   1DA3 D5                 5866 	PUSH	DE
   1DA4 CD 00 00           5867 	CALL	_print
   1DA7 E8 02              5868 	LDA	SP,2(SP)
   1DA9 F8 0C              5869 	LDA	HL,12(SP)
   1DAB 7E                 5870 	LD	A,(HL)
   1DAC F5                 5871 	PUSH	AF
   1DAD 33                 5872 	INC	SP
   1DAE 3E 0F              5873 	LD	A,#<15
   1DB0 F5                 5874 	PUSH	AF
   1DB1 33                 5875 	INC	SP
   1DB2 CD 00 00           5876 	CALL	_gotoxy
   1DB5 E8 02              5877 	LDA	SP,2(SP)
   1DB7 3E 00              5878 	LD	A,#<0
   1DB9 F5                 5879 	PUSH	AF
   1DBA 33                 5880 	INC	SP
ASxxxx Assembler V01.75  (GameBoy Z80-like CPU), page 106.



   1DBB 3E 0A              5881 	LD	A,#<10
   1DBD F5                 5882 	PUSH	AF
   1DBE 33                 5883 	INC	SP
   1DBF F8 0B              5884 	LDA	HL,11(SP)
   1DC1 2A                 5885 	LD	A,(HL+)
   1DC2 56                 5886 	LD	D,(HL)
   1DC3 5F                 5887 	LD	E,A
   1DC4 D5                 5888 	PUSH	DE
   1DC5 CD 00 00           5889 	CALL	_println
   1DC8 E8 04              5890 	LDA	SP,4(SP)
   1DCA C3 E1 1F           5891 	JP	.L253
   1DCD                    5892 .L252:
                           5893 ;	l = current_value(mode, y-FIRST_Y);
                           5894 ;	if(l < params[y-(FIRST_Y-1)].max) {
   1DCD F8 0B              5895 	LDA	HL,11(SP)
   1DCF 5E                 5896 	LD	E,(HL)
   1DD0 3E 01              5897 	LD	A,#<1
   1DD2 A3                 5898 	AND	E
   1DD3 5F                 5899 	LD	E,A
   1DD4 FE 00              5900 	CP	#<0
   1DD6 CA 6F 1F           5901 	JP	Z,.L265
   1DD9 F8 0C              5902 	LDA	HL,12(SP)
   1DDB 5E                 5903 	LD	E,(HL)
   1DDC 1D                 5904 	DEC	E
   1DDD 1D                 5905 	DEC	E
   1DDE 7B                 5906 	LD	A,E
   1DDF F5                 5907 	PUSH	AF
   1DE0 33                 5908 	INC	SP
   1DE1 F8 10              5909 	LDA	HL,16(SP)
   1DE3 7E                 5910 	LD	A,(HL)
   1DE4 F5                 5911 	PUSH	AF
   1DE5 33                 5912 	INC	SP
   1DE6 CD 00 00           5913 	CALL	_current_value
   1DE9 E8 02              5914 	LDA	SP,2(SP)
   1DEB F8 09              5915 	LDA	HL,9(SP)
   1DED 7B                 5916 	LD	A,E
   1DEE 22                 5917 	LD	(HL+),A
   1DEF 72                 5918 	LD	(HL),D
   1DF0 F8 06              5919 	LDA	HL,6(SP)
   1DF2 7B                 5920 	LD	A,E
   1DF3 22                 5921 	LD	(HL+),A
   1DF4 72                 5922 	LD	(HL),D
   1DF5 F8 0C              5923 	LDA	HL,12(SP)
   1DF7 4E                 5924 	LD	C,(HL)
   1DF8 0D                 5925 	DEC	C
   1DF9 06 00              5926 	LD	B,#0
   1DFB CB 21              5927 	SLA	C
   1DFD CB 10              5928 	RL	B
   1DFF CB 21              5929 	SLA	C
   1E01 CB 10              5930 	RL	B
   1E03 FA 03 00           5931 	LD	A,(_params+1)
   1E06 57                 5932 	LD	D,A
   1E07 FA 02 00           5933 	LD	A,(_params)
   1E0A 5F                 5934 	LD	E,A
   1E0B 79                 5935 	LD	A,C
   1E0C 83                 5936 	ADD	E
ASxxxx Assembler V01.75  (GameBoy Z80-like CPU), page 107.



   1E0D 5F                 5937 	LD	E,A
   1E0E 78                 5938 	LD	A,B
   1E0F 8A                 5939 	ADC	D
   1E10 57                 5940 	LD	D,A
   1E11 13                 5941 	INC	DE
   1E12 13                 5942 	INC	DE
   1E13 62                 5943 	LD	H,D
   1E14 6B                 5944 	LD	L,E
   1E15 2A                 5945 	LD	A,(HL+)
   1E16 56                 5946 	LD	D,(HL)
   1E17 5F                 5947 	LD	E,A
   1E18 F8 06              5948 	LDA	HL,6(SP)
   1E1A 2A                 5949 	LD	A,(HL+)
   1E1B 46                 5950 	LD	B,(HL)
   1E1C 4F                 5951 	LD	C,A
   1E1D 78                 5952 	LD	A,B
   1E1E BA                 5953 	CP	D
   1E1F 20 02              5954 	JR	NZ,.L287
   1E21 79                 5955 	LD	A,C
   1E22 BB                 5956 	CP	E
   1E23                    5957 .L287:
                           5958 ;	  if(input & J_A)
                           5959 ;	    l = MIN(l + 10, params[y-(FIRST_Y-1)].max);
   1E23 D2 E1 1F           5960 	JP	NC,.L266
   1E26 F8 0B              5961 	LDA	HL,11(SP)
   1E28 5E                 5962 	LD	E,(HL)
   1E29 3E 10              5963 	LD	A,#<16
   1E2B A3                 5964 	AND	E
   1E2C 5F                 5965 	LD	E,A
   1E2D FE 00              5966 	CP	#<0
   1E2F CA CC 1E           5967 	JP	Z,.L269
   1E32 F8 09              5968 	LDA	HL,9(SP)
   1E34 2A                 5969 	LD	A,(HL+)
   1E35 56                 5970 	LD	D,(HL)
   1E36 5F                 5971 	LD	E,A
   1E37 FA DB 00           5972 	LD	A,(.L261+1)
   1E3A 47                 5973 	LD	B,A
   1E3B FA DA 00           5974 	LD	A,(.L261)
   1E3E 4F                 5975 	LD	C,A
   1E3F 7B                 5976 	LD	A,E
   1E40 81                 5977 	ADD	C
   1E41 5F                 5978 	LD	E,A
   1E42 7A                 5979 	LD	A,D
   1E43 88                 5980 	ADC	B
   1E44 57                 5981 	LD	D,A
   1E45 F8 02              5982 	LDA	HL,2(SP)
   1E47 7B                 5983 	LD	A,E
   1E48 22                 5984 	LD	(HL+),A
   1E49 72                 5985 	LD	(HL),D
   1E4A F8 0C              5986 	LDA	HL,12(SP)
   1E4C 4E                 5987 	LD	C,(HL)
   1E4D 0D                 5988 	DEC	C
   1E4E 06 00              5989 	LD	B,#0
   1E50 CB 21              5990 	SLA	C
   1E52 CB 10              5991 	RL	B
   1E54 CB 21              5992 	SLA	C
ASxxxx Assembler V01.75  (GameBoy Z80-like CPU), page 108.



   1E56 CB 10              5993 	RL	B
   1E58 FA 03 00           5994 	LD	A,(_params+1)
   1E5B 57                 5995 	LD	D,A
   1E5C FA 02 00           5996 	LD	A,(_params)
   1E5F 5F                 5997 	LD	E,A
   1E60 79                 5998 	LD	A,C
   1E61 83                 5999 	ADD	E
   1E62 5F                 6000 	LD	E,A
   1E63 78                 6001 	LD	A,B
   1E64 8A                 6002 	ADC	D
   1E65 57                 6003 	LD	D,A
   1E66 13                 6004 	INC	DE
   1E67 13                 6005 	INC	DE
   1E68 62                 6006 	LD	H,D
   1E69 6B                 6007 	LD	L,E
   1E6A 2A                 6008 	LD	A,(HL+)
   1E6B 56                 6009 	LD	D,(HL)
   1E6C 5F                 6010 	LD	E,A
   1E6D F8 02              6011 	LDA	HL,2(SP)
   1E6F 2A                 6012 	LD	A,(HL+)
   1E70 46                 6013 	LD	B,(HL)
   1E71 4F                 6014 	LD	C,A
   1E72 7A                 6015 	LD	A,D
   1E73 B8                 6016 	CP	B
   1E74 20 02              6017 	JR	NZ,.L288
   1E76 7B                 6018 	LD	A,E
   1E77 B9                 6019 	CP	C
   1E78                    6020 .L288:
   1E78 D2 A7 1E           6021 	JP	NC,.L272
   1E7B F8 0C              6022 	LDA	HL,12(SP)
   1E7D 5E                 6023 	LD	E,(HL)
   1E7E 1D                 6024 	DEC	E
   1E7F 4B                 6025 	LD	C,E
   1E80 06 00              6026 	LD	B,#0
   1E82 CB 21              6027 	SLA	C
   1E84 CB 10              6028 	RL	B
   1E86 CB 21              6029 	SLA	C
   1E88 CB 10              6030 	RL	B
   1E8A FA 03 00           6031 	LD	A,(_params+1)
   1E8D 57                 6032 	LD	D,A
   1E8E FA 02 00           6033 	LD	A,(_params)
   1E91 5F                 6034 	LD	E,A
   1E92 79                 6035 	LD	A,C
   1E93 83                 6036 	ADD	E
   1E94 5F                 6037 	LD	E,A
   1E95 78                 6038 	LD	A,B
   1E96 8A                 6039 	ADC	D
   1E97 57                 6040 	LD	D,A
   1E98 13                 6041 	INC	DE
   1E99 13                 6042 	INC	DE
   1E9A 62                 6043 	LD	H,D
   1E9B 6B                 6044 	LD	L,E
   1E9C 2A                 6045 	LD	A,(HL+)
   1E9D 56                 6046 	LD	D,(HL)
   1E9E 5F                 6047 	LD	E,A
   1E9F F8 04              6048 	LDA	HL,4(SP)
ASxxxx Assembler V01.75  (GameBoy Z80-like CPU), page 109.



   1EA1 7B                 6049 	LD	A,E
   1EA2 22                 6050 	LD	(HL+),A
   1EA3 72                 6051 	LD	(HL),D
   1EA4 C3 BF 1E           6052 	JP	.L273
   1EA7                    6053 .L272:
   1EA7 F8 09              6054 	LDA	HL,9(SP)
   1EA9 2A                 6055 	LD	A,(HL+)
   1EAA 56                 6056 	LD	D,(HL)
   1EAB 5F                 6057 	LD	E,A
   1EAC FA DB 00           6058 	LD	A,(.L261+1)
   1EAF 47                 6059 	LD	B,A
   1EB0 FA DA 00           6060 	LD	A,(.L261)
   1EB3 4F                 6061 	LD	C,A
   1EB4 7B                 6062 	LD	A,E
   1EB5 81                 6063 	ADD	C
   1EB6 5F                 6064 	LD	E,A
   1EB7 7A                 6065 	LD	A,D
   1EB8 88                 6066 	ADC	B
   1EB9 57                 6067 	LD	D,A
   1EBA F8 04              6068 	LDA	HL,4(SP)
   1EBC 7B                 6069 	LD	A,E
   1EBD 22                 6070 	LD	(HL+),A
   1EBE 72                 6071 	LD	(HL),D
   1EBF                    6072 .L273:
   1EBF F8 04              6073 	LDA	HL,4(SP)
   1EC1 2A                 6074 	LD	A,(HL+)
   1EC2 56                 6075 	LD	D,(HL)
   1EC3 5F                 6076 	LD	E,A
   1EC4 F8 09              6077 	LDA	HL,9(SP)
   1EC6 7B                 6078 	LD	A,E
   1EC7 22                 6079 	LD	(HL+),A
   1EC8 72                 6080 	LD	(HL),D
   1EC9 C3 1C 1F           6081 	JP	.L270
   1ECC                    6082 .L269:
                           6083 ;	  else if(input & J_B)
                           6084 ;	    l = params[y-(FIRST_Y-1)].max;
   1ECC F8 0B              6085 	LDA	HL,11(SP)
   1ECE 5E                 6086 	LD	E,(HL)
   1ECF 3E 20              6087 	LD	A,#<32
   1ED1 A3                 6088 	AND	E
   1ED2 5F                 6089 	LD	E,A
   1ED3 FE 00              6090 	CP	#<0
   1ED5 CA 04 1F           6091 	JP	Z,.L274
   1ED8 F8 0C              6092 	LDA	HL,12(SP)
   1EDA 5E                 6093 	LD	E,(HL)
   1EDB 1D                 6094 	DEC	E
   1EDC 4B                 6095 	LD	C,E
   1EDD 06 00              6096 	LD	B,#0
   1EDF CB 21              6097 	SLA	C
   1EE1 CB 10              6098 	RL	B
   1EE3 CB 21              6099 	SLA	C
   1EE5 CB 10              6100 	RL	B
   1EE7 FA 03 00           6101 	LD	A,(_params+1)
   1EEA 57                 6102 	LD	D,A
   1EEB FA 02 00           6103 	LD	A,(_params)
   1EEE 5F                 6104 	LD	E,A
ASxxxx Assembler V01.75  (GameBoy Z80-like CPU), page 110.



   1EEF 79                 6105 	LD	A,C
   1EF0 83                 6106 	ADD	E
   1EF1 5F                 6107 	LD	E,A
   1EF2 78                 6108 	LD	A,B
   1EF3 8A                 6109 	ADC	D
   1EF4 57                 6110 	LD	D,A
   1EF5 13                 6111 	INC	DE
   1EF6 13                 6112 	INC	DE
   1EF7 62                 6113 	LD	H,D
   1EF8 6B                 6114 	LD	L,E
   1EF9 2A                 6115 	LD	A,(HL+)
   1EFA 56                 6116 	LD	D,(HL)
   1EFB 5F                 6117 	LD	E,A
   1EFC F8 09              6118 	LDA	HL,9(SP)
   1EFE 7B                 6119 	LD	A,E
   1EFF 22                 6120 	LD	(HL+),A
   1F00 72                 6121 	LD	(HL),D
   1F01 C3 1C 1F           6122 	JP	.L275
   1F04                    6123 .L274:
                           6124 ;	    l++;
   1F04 F8 09              6125 	LDA	HL,9(SP)
   1F06 2A                 6126 	LD	A,(HL+)
   1F07 56                 6127 	LD	D,(HL)
   1F08 5F                 6128 	LD	E,A
   1F09 FA F2 00           6129 	LD	A,(.L219+1)
   1F0C 47                 6130 	LD	B,A
   1F0D FA F1 00           6131 	LD	A,(.L219)
   1F10 4F                 6132 	LD	C,A
   1F11 7B                 6133 	LD	A,E
   1F12 81                 6134 	ADD	C
   1F13 5F                 6135 	LD	E,A
   1F14 7A                 6136 	LD	A,D
   1F15 88                 6137 	ADC	B
   1F16 57                 6138 	LD	D,A
   1F17 F8 09              6139 	LDA	HL,9(SP)
   1F19 7B                 6140 	LD	A,E
   1F1A 22                 6141 	LD	(HL+),A
   1F1B 72                 6142 	LD	(HL),D
   1F1C                    6143 .L275:
   1F1C                    6144 .L270:
                           6145 ;	  update_value(mode, y-FIRST_Y, l);
                           6146 ;	  gotoxy(VAL_X, y); print("    ");
                           6147 ;	  gotoxy(VAL_X, y); println(l, 10, UNSIGNED);
                           6148 ;	}
                           6149 ;      } else if(input & J_START) {
   1F1C F8 09              6150 	LDA	HL,9(SP)
   1F1E 2A                 6151 	LD	A,(HL+)
   1F1F 56                 6152 	LD	D,(HL)
   1F20 5F                 6153 	LD	E,A
   1F21 D5                 6154 	PUSH	DE
   1F22 F8 0E              6155 	LDA	HL,14(SP)
   1F24 5E                 6156 	LD	E,(HL)
   1F25 1D                 6157 	DEC	E
   1F26 1D                 6158 	DEC	E
   1F27 7B                 6159 	LD	A,E
   1F28 F5                 6160 	PUSH	AF
ASxxxx Assembler V01.75  (GameBoy Z80-like CPU), page 111.



   1F29 33                 6161 	INC	SP
   1F2A F8 12              6162 	LDA	HL,18(SP)
   1F2C 7E                 6163 	LD	A,(HL)
   1F2D F5                 6164 	PUSH	AF
   1F2E 33                 6165 	INC	SP
   1F2F CD AA 06           6166 	CALL	_update_value
   1F32 E8 04              6167 	LDA	SP,4(SP)
   1F34 F8 0C              6168 	LDA	HL,12(SP)
   1F36 7E                 6169 	LD	A,(HL)
   1F37 F5                 6170 	PUSH	AF
   1F38 33                 6171 	INC	SP
   1F39 3E 0F              6172 	LD	A,#<15
   1F3B F5                 6173 	PUSH	AF
   1F3C 33                 6174 	INC	SP
   1F3D CD 00 00           6175 	CALL	_gotoxy
   1F40 E8 02              6176 	LDA	SP,2(SP)
   1F42 11 D5 00           6177 	LD	DE,#.L264
   1F45 D5                 6178 	PUSH	DE
   1F46 CD 00 00           6179 	CALL	_print
   1F49 E8 02              6180 	LDA	SP,2(SP)
   1F4B F8 0C              6181 	LDA	HL,12(SP)
   1F4D 7E                 6182 	LD	A,(HL)
   1F4E F5                 6183 	PUSH	AF
   1F4F 33                 6184 	INC	SP
   1F50 3E 0F              6185 	LD	A,#<15
   1F52 F5                 6186 	PUSH	AF
   1F53 33                 6187 	INC	SP
   1F54 CD 00 00           6188 	CALL	_gotoxy
   1F57 E8 02              6189 	LDA	SP,2(SP)
   1F59 3E 00              6190 	LD	A,#<0
   1F5B F5                 6191 	PUSH	AF
   1F5C 33                 6192 	INC	SP
   1F5D 3E 0A              6193 	LD	A,#<10
   1F5F F5                 6194 	PUSH	AF
   1F60 33                 6195 	INC	SP
   1F61 F8 0B              6196 	LDA	HL,11(SP)
   1F63 2A                 6197 	LD	A,(HL+)
   1F64 56                 6198 	LD	D,(HL)
   1F65 5F                 6199 	LD	E,A
   1F66 D5                 6200 	PUSH	DE
   1F67 CD 00 00           6201 	CALL	_println
   1F6A E8 04              6202 	LDA	SP,4(SP)
   1F6C C3 E1 1F           6203 	JP	.L266
   1F6F                    6204 .L265:
                           6205 ;	if(input & J_A)
                           6206 ;	  play_music(mode);
   1F6F F8 0B              6207 	LDA	HL,11(SP)
   1F71 5E                 6208 	LD	E,(HL)
   1F72 3E 80              6209 	LD	A,#<128
   1F74 A3                 6210 	AND	E
   1F75 5F                 6211 	LD	E,A
   1F76 FE 00              6212 	CP	#<0
   1F78 CA B0 1F           6213 	JP	Z,.L276
   1F7B F8 0B              6214 	LDA	HL,11(SP)
   1F7D 5E                 6215 	LD	E,(HL)
   1F7E 3E 10              6216 	LD	A,#<16
ASxxxx Assembler V01.75  (GameBoy Z80-like CPU), page 112.



   1F80 A3                 6217 	AND	E
   1F81 5F                 6218 	LD	E,A
   1F82 FE 00              6219 	CP	#<0
   1F84 CA 93 1F           6220 	JP	Z,.L278
   1F87 F8 0F              6221 	LDA	HL,15(SP)
   1F89 7E                 6222 	LD	A,(HL)
   1F8A F5                 6223 	PUSH	AF
   1F8B 33                 6224 	INC	SP
   1F8C CD 32 1A           6225 	CALL	_play_music
   1F8F 33                 6226 	INC	SP
   1F90 C3 AA 1F           6227 	JP	.L279
   1F93                    6228 .L278:
                           6229 ;	  update_value(mode, PLAY, 1);
   1F93 FA F2 00           6230 	LD	A,(.L219+1)
   1F96 57                 6231 	LD	D,A
   1F97 FA F1 00           6232 	LD	A,(.L219)
   1F9A 5F                 6233 	LD	E,A
   1F9B D5                 6234 	PUSH	DE
   1F9C 3E 20              6235 	LD	A,#<32
   1F9E F5                 6236 	PUSH	AF
   1F9F 33                 6237 	INC	SP
   1FA0 F8 12              6238 	LDA	HL,18(SP)
   1FA2 7E                 6239 	LD	A,(HL)
   1FA3 F5                 6240 	PUSH	AF
   1FA4 33                 6241 	INC	SP
   1FA5 CD AA 06           6242 	CALL	_update_value
   1FA8 E8 04              6243 	LDA	SP,4(SP)
   1FAA                    6244 .L279:
                           6245 ;	waitpadup();
                           6246 ;      } else if(input & J_SELECT) {
   1FAA CD 00 00           6247 	CALL	_waitpadup
   1FAD C3 E1 1F           6248 	JP	.L277
   1FB0                    6249 .L276:
                           6250 ;	if(input & J_A)
                           6251 ;	  dump_registers();
   1FB0 F8 0B              6252 	LDA	HL,11(SP)
   1FB2 5E                 6253 	LD	E,(HL)
   1FB3 3E 40              6254 	LD	A,#<64
   1FB5 A3                 6255 	AND	E
   1FB6 5F                 6256 	LD	E,A
   1FB7 FE 00              6257 	CP	#<0
   1FB9 CA E1 1F           6258 	JP	Z,.L280
   1FBC F8 0B              6259 	LDA	HL,11(SP)
   1FBE 5E                 6260 	LD	E,(HL)
   1FBF 3E 10              6261 	LD	A,#<16
   1FC1 A3                 6262 	AND	E
   1FC2 5F                 6263 	LD	E,A
   1FC3 FE 00              6264 	CP	#<0
   1FC5 CA CE 1F           6265 	JP	Z,.L282
   1FC8 CD B4 1A           6266 	CALL	_dump_registers
   1FCB C3 DB 1F           6267 	JP	.L283
   1FCE                    6268 .L282:
                           6269 ;	  mode = (mode+1) % NB_MODES;
   1FCE F8 0F              6270 	LDA	HL,15(SP)
   1FD0 5E                 6271 	LD	E,(HL)
   1FD1 4B                 6272 	LD	C,E
ASxxxx Assembler V01.75  (GameBoy Z80-like CPU), page 113.



   1FD2 0C                 6273 	INC	C
   1FD3 1E 05              6274 	LD	E,#<5
                           6275 	.globl	.modu8
   1FD5 CD 00 00           6276 	CALL	.modu8
   1FD8 F8 0F              6277 	LDA	HL,15(SP)
   1FDA 73                 6278 	LD	(HL),E
   1FDB                    6279 .L283:
                           6280 ;	waitpadup();
                           6281 ;	break;
   1FDB CD 00 00           6282 	CALL	_waitpadup
   1FDE C3 F2 1F           6283 	JP	.L243
   1FE1                    6284 .L280:
   1FE1                    6285 .L277:
   1FE1                    6286 .L266:
   1FE1                    6287 .L253:
   1FE1                    6288 .L249:
   1FE1                    6289 .L245:
                           6290 ;      delay(250);
                           6291 ;    }
   1FE1 FA D4 00           6292 	LD	A,(.L284+1)
   1FE4 57                 6293 	LD	D,A
   1FE5 FA D3 00           6294 	LD	A,(.L284)
   1FE8 5F                 6295 	LD	E,A
   1FE9 D5                 6296 	PUSH	DE
   1FEA CD 00 00           6297 	CALL	_delay
   1FED E8 02              6298 	LDA	SP,2(SP)
   1FEF                    6299 .L242:
                           6300 ;    while(1) {
   1FEF C3 1E 1C           6301 	JP	.L241
   1FF2                    6302 .L243:
                           6303 ;  }
   1FF2                    6304 .L239:
                           6305 ;  while(1) {
                           6306 ;}
   1FF2 C3 DA 1B           6307 	JP	.L238
   1FF5                    6308 .L237:
   1FF5 C1                 6309 	POP	BC
   1FF6 E8 0B              6310 	LDA	SP,11(SP)
   1FF8 C9                 6311 	RET
   1FF9                    6312 _end_wait_event:
                           6313 	;; _CODE ends
                           6314 	.area	_LIT
   00BC                    6315 .L290:
   00BC 00                 6316 	.db	0x0
   00BD 81                 6317 	.db	0x81
   00BE 43                 6318 	.db	0x43
   00BF 73                 6319 	.db	0x73
   00C0 06                 6320 	.db	0x6
   00C1 00                 6321 	.db	0x0
   00C2 81                 6322 	.db	0x81
   00C3 84                 6323 	.db	0x84
   00C4 D7                 6324 	.db	0xd7
   00C5 06                 6325 	.db	0x6
   00C6 80                 6326 	.db	0x80
   00C7 00                 6327 	.db	0x0
   00C8 20                 6328 	.db	0x20
ASxxxx Assembler V01.75  (GameBoy Z80-like CPU), page 114.



   00C9 D6                 6329 	.db	0xd6
   00CA 06                 6330 	.db	0x6
   00CB 00                 6331 	.db	0x0
   00CC 3A                 6332 	.db	0x3a
   00CD A1                 6333 	.db	0xa1
   00CE 00                 6334 	.db	0x0
   00CF 40                 6335 	.db	0x40
   00D0 77                 6336 	.db	0x77
   00D1 FF                 6337 	.db	0xff
   00D2 80                 6338 	.db	0x80
                           6339 	.globl	_main
                           6340 	;; _LIT ends
                           6341 	.area	_CODE
   1FF9                    6342 _start_main:
   1FF9                    6343 _main:
                           6344 ;{
                           6345 ;  struct SoundReg s = {
   1FF9 E8 E9              6346 	LDA	SP,-23(SP)
   1FFB F8 00              6347 	LDA	HL,0(SP)
   1FFD 54                 6348 	LD	D,H
   1FFE 5D                 6349 	LD	E,L
   1FFF 01 BC 00           6350 	LD	BC,#.L290
   2002 26 17              6351 	LD	H,#23
   2004                    6352 .L291:
                           6353 ;  soundReg = &s;
                           6354 ;  NR10_REG = ((UBYTE *)soundReg)[0x00];
                           6355 ;  NR11_REG = ((UBYTE *)soundReg)[0x01];
                           6356 ;  NR12_REG = ((UBYTE *)soundReg)[0x02];
                           6357 ;  NR13_REG = ((UBYTE *)soundReg)[0x03];
                           6358 ;  NR14_REG = ((UBYTE *)soundReg)[0x04];
                           6359 ;  NR21_REG = ((UBYTE *)soundReg)[0x06];
                           6360 ;  NR22_REG = ((UBYTE *)soundReg)[0x07];
                           6361 ;  NR23_REG = ((UBYTE *)soundReg)[0x08];
                           6362 ;  NR24_REG = ((UBYTE *)soundReg)[0x09];
                           6363 ;  NR30_REG = ((UBYTE *)soundReg)[0x0A];
                           6364 ;  NR31_REG = ((UBYTE *)soundReg)[0x0B];
                           6365 ;  NR32_REG = ((UBYTE *)soundReg)[0x0C];
                           6366 ;  NR33_REG = ((UBYTE *)soundReg)[0x0D];
                           6367 ;  NR34_REG = ((UBYTE *)soundReg)[0x0E];
                           6368 ;  NR41_REG = ((UBYTE *)soundReg)[0x10];
                           6369 ;  NR42_REG = ((UBYTE *)soundReg)[0x11];
                           6370 ;  NR43_REG = ((UBYTE *)soundReg)[0x12];
                           6371 ;  NR44_REG = ((UBYTE *)soundReg)[0x13];
                           6372 ;  NR50_REG = ((UBYTE *)soundReg)[0x14];
                           6373 ;  NR51_REG = ((UBYTE *)soundReg)[0x15];
                           6374 ;  NR52_REG = ((UBYTE *)soundReg)[0x16];
                           6375 ;  cls();
                           6376 ;  wait_event(1);
                           6377 ;}
   2004 0A                 6378 	LD	A,(BC)
   2005 12                 6379 	LD	(DE),A
   2006 03                 6380 	INC	BC
   2007 13                 6381 	INC	DE
   2008 25                 6382 	DEC	H
   2009 20 F9              6383 	JR	NZ,.L291
   200B F8 00              6384 	LDA	HL,0(SP)
ASxxxx Assembler V01.75  (GameBoy Z80-like CPU), page 115.



   200D 54                 6385 	LD	D,H
   200E 5D                 6386 	LD	E,L
   200F 7B                 6387 	LD	A,E
   2010 EA 00 00           6388 	LD	(_soundReg),A
   2013 7A                 6389 	LD	A,D
   2014 EA 01 00           6390 	LD	(_soundReg+1),A
   2017 57                 6391 	LD	D,A
   2018 FA 00 00           6392 	LD	A,(_soundReg)
   201B 5F                 6393 	LD	E,A
   201C 1A                 6394 	LD	A,(DE)
   201D 5F                 6395 	LD	E,A
   201E E0 10              6396 	LDH	(0x10),A
   2020 FA 01 00           6397 	LD	A,(_soundReg+1)
   2023 57                 6398 	LD	D,A
   2024 FA 00 00           6399 	LD	A,(_soundReg)
   2027 5F                 6400 	LD	E,A
   2028 13                 6401 	INC	DE
   2029 1A                 6402 	LD	A,(DE)
   202A 5F                 6403 	LD	E,A
   202B E0 11              6404 	LDH	(0x11),A
   202D FA 01 00           6405 	LD	A,(_soundReg+1)
   2030 57                 6406 	LD	D,A
   2031 FA 00 00           6407 	LD	A,(_soundReg)
   2034 5F                 6408 	LD	E,A
   2035 13                 6409 	INC	DE
   2036 13                 6410 	INC	DE
   2037 1A                 6411 	LD	A,(DE)
   2038 5F                 6412 	LD	E,A
   2039 E0 12              6413 	LDH	(0x12),A
   203B FA 01 00           6414 	LD	A,(_soundReg+1)
   203E 57                 6415 	LD	D,A
   203F FA 00 00           6416 	LD	A,(_soundReg)
   2042 5F                 6417 	LD	E,A
   2043 13                 6418 	INC	DE
   2044 13                 6419 	INC	DE
   2045 13                 6420 	INC	DE
   2046 1A                 6421 	LD	A,(DE)
   2047 5F                 6422 	LD	E,A
   2048 E0 13              6423 	LDH	(0x13),A
   204A FA 01 00           6424 	LD	A,(_soundReg+1)
   204D 57                 6425 	LD	D,A
   204E FA 00 00           6426 	LD	A,(_soundReg)
   2051 5F                 6427 	LD	E,A
   2052 21 04 00           6428 	LD	HL,#4
   2055 19                 6429 	ADD	HL,DE
   2056 54                 6430 	LD	D,H
   2057 5D                 6431 	LD	E,L
   2058 1A                 6432 	LD	A,(DE)
   2059 5F                 6433 	LD	E,A
   205A E0 14              6434 	LDH	(0x14),A
   205C FA 01 00           6435 	LD	A,(_soundReg+1)
   205F 57                 6436 	LD	D,A
   2060 FA 00 00           6437 	LD	A,(_soundReg)
   2063 5F                 6438 	LD	E,A
   2064 21 06 00           6439 	LD	HL,#6
   2067 19                 6440 	ADD	HL,DE
ASxxxx Assembler V01.75  (GameBoy Z80-like CPU), page 116.



   2068 54                 6441 	LD	D,H
   2069 5D                 6442 	LD	E,L
   206A 1A                 6443 	LD	A,(DE)
   206B 5F                 6444 	LD	E,A
   206C E0 16              6445 	LDH	(0x16),A
   206E FA 01 00           6446 	LD	A,(_soundReg+1)
   2071 57                 6447 	LD	D,A
   2072 FA 00 00           6448 	LD	A,(_soundReg)
   2075 5F                 6449 	LD	E,A
   2076 21 07 00           6450 	LD	HL,#7
   2079 19                 6451 	ADD	HL,DE
   207A 54                 6452 	LD	D,H
   207B 5D                 6453 	LD	E,L
   207C 1A                 6454 	LD	A,(DE)
   207D 5F                 6455 	LD	E,A
   207E E0 17              6456 	LDH	(0x17),A
   2080 FA 01 00           6457 	LD	A,(_soundReg+1)
   2083 57                 6458 	LD	D,A
   2084 FA 00 00           6459 	LD	A,(_soundReg)
   2087 5F                 6460 	LD	E,A
   2088 21 08 00           6461 	LD	HL,#8
   208B 19                 6462 	ADD	HL,DE
   208C 54                 6463 	LD	D,H
   208D 5D                 6464 	LD	E,L
   208E 1A                 6465 	LD	A,(DE)
   208F 5F                 6466 	LD	E,A
   2090 E0 18              6467 	LDH	(0x18),A
   2092 FA 01 00           6468 	LD	A,(_soundReg+1)
   2095 57                 6469 	LD	D,A
   2096 FA 00 00           6470 	LD	A,(_soundReg)
   2099 5F                 6471 	LD	E,A
   209A 21 09 00           6472 	LD	HL,#9
   209D 19                 6473 	ADD	HL,DE
   209E 54                 6474 	LD	D,H
   209F 5D                 6475 	LD	E,L
   20A0 1A                 6476 	LD	A,(DE)
   20A1 5F                 6477 	LD	E,A
   20A2 E0 19              6478 	LDH	(0x19),A
   20A4 FA 01 00           6479 	LD	A,(_soundReg+1)
   20A7 57                 6480 	LD	D,A
   20A8 FA 00 00           6481 	LD	A,(_soundReg)
   20AB 5F                 6482 	LD	E,A
   20AC 21 0A 00           6483 	LD	HL,#10
   20AF 19                 6484 	ADD	HL,DE
   20B0 54                 6485 	LD	D,H
   20B1 5D                 6486 	LD	E,L
   20B2 1A                 6487 	LD	A,(DE)
   20B3 5F                 6488 	LD	E,A
   20B4 E0 1A              6489 	LDH	(0x1A),A
   20B6 FA 01 00           6490 	LD	A,(_soundReg+1)
   20B9 57                 6491 	LD	D,A
   20BA FA 00 00           6492 	LD	A,(_soundReg)
   20BD 5F                 6493 	LD	E,A
   20BE 21 0B 00           6494 	LD	HL,#11
   20C1 19                 6495 	ADD	HL,DE
   20C2 54                 6496 	LD	D,H
ASxxxx Assembler V01.75  (GameBoy Z80-like CPU), page 117.



   20C3 5D                 6497 	LD	E,L
   20C4 1A                 6498 	LD	A,(DE)
   20C5 5F                 6499 	LD	E,A
   20C6 E0 1B              6500 	LDH	(0x1B),A
   20C8 FA 01 00           6501 	LD	A,(_soundReg+1)
   20CB 57                 6502 	LD	D,A
   20CC FA 00 00           6503 	LD	A,(_soundReg)
   20CF 5F                 6504 	LD	E,A
   20D0 21 0C 00           6505 	LD	HL,#12
   20D3 19                 6506 	ADD	HL,DE
   20D4 54                 6507 	LD	D,H
   20D5 5D                 6508 	LD	E,L
   20D6 1A                 6509 	LD	A,(DE)
   20D7 5F                 6510 	LD	E,A
   20D8 E0 1C              6511 	LDH	(0x1C),A
   20DA FA 01 00           6512 	LD	A,(_soundReg+1)
   20DD 57                 6513 	LD	D,A
   20DE FA 00 00           6514 	LD	A,(_soundReg)
   20E1 5F                 6515 	LD	E,A
   20E2 21 0D 00           6516 	LD	HL,#13
   20E5 19                 6517 	ADD	HL,DE
   20E6 54                 6518 	LD	D,H
   20E7 5D                 6519 	LD	E,L
   20E8 1A                 6520 	LD	A,(DE)
   20E9 5F                 6521 	LD	E,A
   20EA E0 1D              6522 	LDH	(0x1D),A
   20EC FA 01 00           6523 	LD	A,(_soundReg+1)
   20EF 57                 6524 	LD	D,A
   20F0 FA 00 00           6525 	LD	A,(_soundReg)
   20F3 5F                 6526 	LD	E,A
   20F4 21 0E 00           6527 	LD	HL,#14
   20F7 19                 6528 	ADD	HL,DE
   20F8 54                 6529 	LD	D,H
   20F9 5D                 6530 	LD	E,L
   20FA 1A                 6531 	LD	A,(DE)
   20FB 5F                 6532 	LD	E,A
   20FC E0 1E              6533 	LDH	(0x1E),A
   20FE FA 01 00           6534 	LD	A,(_soundReg+1)
   2101 57                 6535 	LD	D,A
   2102 FA 00 00           6536 	LD	A,(_soundReg)
   2105 5F                 6537 	LD	E,A
   2106 21 10 00           6538 	LD	HL,#16
   2109 19                 6539 	ADD	HL,DE
   210A 54                 6540 	LD	D,H
   210B 5D                 6541 	LD	E,L
   210C 1A                 6542 	LD	A,(DE)
   210D 5F                 6543 	LD	E,A
   210E E0 20              6544 	LDH	(0x20),A
   2110 FA 01 00           6545 	LD	A,(_soundReg+1)
   2113 57                 6546 	LD	D,A
   2114 FA 00 00           6547 	LD	A,(_soundReg)
   2117 5F                 6548 	LD	E,A
   2118 21 11 00           6549 	LD	HL,#17
   211B 19                 6550 	ADD	HL,DE
   211C 54                 6551 	LD	D,H
   211D 5D                 6552 	LD	E,L
ASxxxx Assembler V01.75  (GameBoy Z80-like CPU), page 118.



   211E 1A                 6553 	LD	A,(DE)
   211F 5F                 6554 	LD	E,A
   2120 E0 21              6555 	LDH	(0x21),A
   2122 FA 01 00           6556 	LD	A,(_soundReg+1)
   2125 57                 6557 	LD	D,A
   2126 FA 00 00           6558 	LD	A,(_soundReg)
   2129 5F                 6559 	LD	E,A
   212A 21 12 00           6560 	LD	HL,#18
   212D 19                 6561 	ADD	HL,DE
   212E 54                 6562 	LD	D,H
   212F 5D                 6563 	LD	E,L
   2130 1A                 6564 	LD	A,(DE)
   2131 5F                 6565 	LD	E,A
   2132 E0 22              6566 	LDH	(0x22),A
   2134 FA 01 00           6567 	LD	A,(_soundReg+1)
   2137 57                 6568 	LD	D,A
   2138 FA 00 00           6569 	LD	A,(_soundReg)
   213B 5F                 6570 	LD	E,A
   213C 21 13 00           6571 	LD	HL,#19
   213F 19                 6572 	ADD	HL,DE
   2140 54                 6573 	LD	D,H
   2141 5D                 6574 	LD	E,L
   2142 1A                 6575 	LD	A,(DE)
   2143 5F                 6576 	LD	E,A
   2144 E0 23              6577 	LDH	(0x23),A
   2146 FA 01 00           6578 	LD	A,(_soundReg+1)
   2149 57                 6579 	LD	D,A
   214A FA 00 00           6580 	LD	A,(_soundReg)
   214D 5F                 6581 	LD	E,A
   214E 21 14 00           6582 	LD	HL,#20
   2151 19                 6583 	ADD	HL,DE
   2152 54                 6584 	LD	D,H
   2153 5D                 6585 	LD	E,L
   2154 1A                 6586 	LD	A,(DE)
   2155 5F                 6587 	LD	E,A
   2156 E0 24              6588 	LDH	(0x24),A
   2158 FA 01 00           6589 	LD	A,(_soundReg+1)
   215B 57                 6590 	LD	D,A
   215C FA 00 00           6591 	LD	A,(_soundReg)
   215F 5F                 6592 	LD	E,A
   2160 21 15 00           6593 	LD	HL,#21
   2163 19                 6594 	ADD	HL,DE
   2164 54                 6595 	LD	D,H
   2165 5D                 6596 	LD	E,L
   2166 1A                 6597 	LD	A,(DE)
   2167 5F                 6598 	LD	E,A
   2168 E0 25              6599 	LDH	(0x25),A
   216A FA 01 00           6600 	LD	A,(_soundReg+1)
   216D 57                 6601 	LD	D,A
   216E FA 00 00           6602 	LD	A,(_soundReg)
   2171 5F                 6603 	LD	E,A
   2172 21 16 00           6604 	LD	HL,#22
   2175 19                 6605 	ADD	HL,DE
   2176 54                 6606 	LD	D,H
   2177 5D                 6607 	LD	E,L
   2178 1A                 6608 	LD	A,(DE)
ASxxxx Assembler V01.75  (GameBoy Z80-like CPU), page 119.



   2179 5F                 6609 	LD	E,A
   217A E0 26              6610 	LDH	(0x26),A
   217C CD 00 00           6611 	CALL	_cls
   217F 3E 01              6612 	LD	A,#<1
   2181 F5                 6613 	PUSH	AF
   2182 33                 6614 	INC	SP
   2183 CD D4 1B           6615 	CALL	_wait_event
   2186 33                 6616 	INC	SP
   2187                    6617 .L289:
   2187 E8 17              6618 	LDA	SP,23(SP)
   2189 C9                 6619 	RET
   218A                    6620 _end_main:
                           6621 	;; _CODE ends
                           6622 	.area	_BSS
                           6623 	.globl	_soundReg
   0000                    6624 _soundReg:
   0000                    6625 	.blkb	2
                           6626 	.globl	_params
   0002                    6627 _params:
   0002                    6628 	.blkb	2
                           6629 	.globl	_setchar
                           6630 	.globl	_gotoxy
                           6631 	.globl	_putchar
                           6632 	.globl	_cls
                           6633 	.globl	_print
                           6634 	.globl	_println
                           6635 	.globl	_printn
                           6636 	.globl	_waitpadup
                           6637 	.globl	_joypad
                           6638 	.globl	_delay
                           6639 	;; _BSS ends
                           6640 	.area	_LIT
   00D3                    6641 .L284:
   00D3 FA 00              6642 	.dw	0xfa
   00D5                    6643 .L264:
   00D5 20                 6644 	.db	32
   00D6 20                 6645 	.db	32
   00D7 20                 6646 	.db	32
   00D8 20                 6647 	.db	32
   00D9 00                 6648 	.db	0
   00DA                    6649 .L261:
   00DA 0A 00              6650 	.dw	0xa
   00DC                    6651 .L232:
   00DC 30                 6652 	.db	48
   00DD 78                 6653 	.db	120
   00DE 46                 6654 	.db	70
   00DF 46                 6655 	.db	70
   00E0 00                 6656 	.db	0
   00E1                    6657 .L222:
   00E1 52                 6658 	.db	82
   00E2 65                 6659 	.db	101
   00E3 67                 6660 	.db	103
   00E4 69                 6661 	.db	105
   00E5 73                 6662 	.db	115
   00E6 74                 6663 	.db	116
   00E7 65                 6664 	.db	101
ASxxxx Assembler V01.75  (GameBoy Z80-like CPU), page 120.



   00E8 72                 6665 	.db	114
   00E9 20                 6666 	.db	32
   00EA 44                 6667 	.db	68
   00EB 75                 6668 	.db	117
   00EC 6D                 6669 	.db	109
   00ED 70                 6670 	.db	112
   00EE 00                 6671 	.db	0
   00EF                    6672 .L220:
   00EF F4 01              6673 	.dw	0x1f4
   00F1                    6674 .L219:
   00F1 01 00              6675 	.dw	0x1
   00F3                    6676 .L112:
   00F3 00 00              6677 	.dw	0x0
   00F5                    6678 .L30:
   00F5 50                 6679 	.db	80
   00F6 6F                 6680 	.db	111
   00F7 6C                 6681 	.db	108
   00F8 79                 6682 	.db	121
   00F9 20                 6683 	.db	32
   00FA 43                 6684 	.db	67
   00FB 6E                 6685 	.db	110
   00FC 74                 6686 	.db	116
   00FD 20                 6687 	.db	32
   00FE 44                 6688 	.db	68
   00FF 69                 6689 	.db	105
   0100 76                 6690 	.db	118
   0101 00                 6691 	.db	0
   0102                    6692 .L29:
   0102 50                 6693 	.db	80
   0103 6F                 6694 	.db	111
   0104 6C                 6695 	.db	108
   0105 79                 6696 	.db	121
   0106 20                 6697 	.db	32
   0107 43                 6698 	.db	67
   0108 6E                 6699 	.db	110
   0109 74                 6700 	.db	116
   010A 20                 6701 	.db	32
   010B 53                 6702 	.db	83
   010C 74                 6703 	.db	116
   010D 65                 6704 	.db	101
   010E 70                 6705 	.db	112
   010F 00                 6706 	.db	0
   0110                    6707 .L28:
   0110 50                 6708 	.db	80
   0111 6F                 6709 	.db	111
   0112 6C                 6710 	.db	108
   0113 79                 6711 	.db	121
   0114 20                 6712 	.db	32
   0115 43                 6713 	.db	67
   0116 6E                 6714 	.db	110
   0117 74                 6715 	.db	116
   0118 20                 6716 	.db	32
   0119 46                 6717 	.db	70
   011A 72                 6718 	.db	114
   011B 65                 6719 	.db	101
   011C 71                 6720 	.db	113
ASxxxx Assembler V01.75  (GameBoy Z80-like CPU), page 121.



   011D 00                 6721 	.db	0
   011E                    6722 .L27:
   011E 53                 6723 	.db	83
   011F 6F                 6724 	.db	111
   0120 75                 6725 	.db	117
   0121 6E                 6726 	.db	110
   0122 64                 6727 	.db	100
   0123 20                 6728 	.db	32
   0124 4D                 6729 	.db	77
   0125 6F                 6730 	.db	111
   0126 64                 6731 	.db	100
   0127 65                 6732 	.db	101
   0128 20                 6733 	.db	32
   0129 23                 6734 	.db	35
   012A 34                 6735 	.db	52
   012B 00                 6736 	.db	0
   012C                    6737 .L26:
   012C 53                 6738 	.db	83
   012D 65                 6739 	.db	101
   012E 6C                 6740 	.db	108
   012F 20                 6741 	.db	32
   0130 4F                 6742 	.db	79
   0131 75                 6743 	.db	117
   0132 74                 6744 	.db	116
   0133 20                 6745 	.db	32
   0134 4C                 6746 	.db	76
   0135 65                 6747 	.db	101
   0136 76                 6748 	.db	118
   0137 65                 6749 	.db	101
   0138 6C                 6750 	.db	108
   0139 00                 6751 	.db	0
   013A                    6752 .L25:
   013A 53                 6753 	.db	83
   013B 6F                 6754 	.db	111
   013C 75                 6755 	.db	117
   013D 6E                 6756 	.db	110
   013E 64                 6757 	.db	100
   013F 20                 6758 	.db	32
   0140 4F                 6759 	.db	79
   0141 6E                 6760 	.db	110
   0142 2F                 6761 	.db	47
   0143 4F                 6762 	.db	79
   0144 66                 6763 	.db	102
   0145 66                 6764 	.db	102
   0146 00                 6765 	.db	0
   0147                    6766 .L24:
   0147 53                 6767 	.db	83
   0148 6F                 6768 	.db	111
   0149 75                 6769 	.db	117
   014A 6E                 6770 	.db	110
   014B 64                 6771 	.db	100
   014C 20                 6772 	.db	32
   014D 4D                 6773 	.db	77
   014E 6F                 6774 	.db	111
   014F 64                 6775 	.db	100
   0150 65                 6776 	.db	101
ASxxxx Assembler V01.75  (GameBoy Z80-like CPU), page 122.



   0151 20                 6777 	.db	32
   0152 23                 6778 	.db	35
   0153 33                 6779 	.db	51
   0154 00                 6780 	.db	0
   0155                    6781 .L23:
   0155 45                 6782 	.db	69
   0156 6E                 6783 	.db	110
   0157 76                 6784 	.db	118
   0158 20                 6785 	.db	32
   0159 4E                 6786 	.db	78
   015A 62                 6787 	.db	98
   015B 20                 6788 	.db	32
   015C 53                 6789 	.db	83
   015D 74                 6790 	.db	116
   015E 65                 6791 	.db	101
   015F 70                 6792 	.db	112
   0160 00                 6793 	.db	0
   0161                    6794 .L22:
   0161 53                 6795 	.db	83
   0162 6F                 6796 	.db	111
   0163 75                 6797 	.db	117
   0164 6E                 6798 	.db	110
   0165 64                 6799 	.db	100
   0166 20                 6800 	.db	32
   0167 4D                 6801 	.db	77
   0168 6F                 6802 	.db	111
   0169 64                 6803 	.db	100
   016A 65                 6804 	.db	101
   016B 20                 6805 	.db	32
   016C 23                 6806 	.db	35
   016D 32                 6807 	.db	50
   016E 00                 6808 	.db	0
   016F                    6809 .L21:
   016F 4F                 6810 	.db	79
   0170 6E                 6811 	.db	110
   0171 2F                 6812 	.db	47
   0172 4F                 6813 	.db	79
   0173 66                 6814 	.db	102
   0174 66                 6815 	.db	102
   0175 00                 6816 	.db	0
   0176                    6817 .L20:
   0176 4F                 6818 	.db	79
   0177 75                 6819 	.db	117
   0178 74                 6820 	.db	116
   0179 20                 6821 	.db	32
   017A 74                 6822 	.db	116
   017B 6F                 6823 	.db	111
   017C 20                 6824 	.db	32
   017D 53                 6825 	.db	83
   017E 4F                 6826 	.db	79
   017F 32                 6827 	.db	50
   0180 00                 6828 	.db	0
   0181                    6829 .L19:
   0181 4F                 6830 	.db	79
   0182 75                 6831 	.db	117
   0183 74                 6832 	.db	116
ASxxxx Assembler V01.75  (GameBoy Z80-like CPU), page 123.



   0184 20                 6833 	.db	32
   0185 74                 6834 	.db	116
   0186 6F                 6835 	.db	111
   0187 20                 6836 	.db	32
   0188 53                 6837 	.db	83
   0189 4F                 6838 	.db	79
   018A 31                 6839 	.db	49
   018B 00                 6840 	.db	0
   018C                    6841 .L18:
   018C 43                 6842 	.db	67
   018D 6F                 6843 	.db	111
   018E 6E                 6844 	.db	110
   018F 73                 6845 	.db	115
   0190 20                 6846 	.db	32
   0191 53                 6847 	.db	83
   0192 65                 6848 	.db	101
   0193 6C                 6849 	.db	108
   0194 00                 6850 	.db	0
   0195                    6851 .L17:
   0195 46                 6852 	.db	70
   0196 72                 6853 	.db	114
   0197 65                 6854 	.db	101
   0198 71                 6855 	.db	113
   0199 75                 6856 	.db	117
   019A 65                 6857 	.db	101
   019B 6E                 6858 	.db	110
   019C 63                 6859 	.db	99
   019D 79                 6860 	.db	121
   019E 00                 6861 	.db	0
   019F                    6862 .L16:
   019F 45                 6863 	.db	69
   01A0 6E                 6864 	.db	110
   01A1 76                 6865 	.db	118
   01A2 20                 6866 	.db	32
   01A3 4E                 6867 	.db	78
   01A4 62                 6868 	.db	98
   01A5 20                 6869 	.db	32
   01A6 53                 6870 	.db	83
   01A7 77                 6871 	.db	119
   01A8 70                 6872 	.db	112
   01A9 00                 6873 	.db	0
   01AA                    6874 .L15:
   01AA 45                 6875 	.db	69
   01AB 6E                 6876 	.db	110
   01AC 76                 6877 	.db	118
   01AD 20                 6878 	.db	32
   01AE 4D                 6879 	.db	77
   01AF 6F                 6880 	.db	111
   01B0 64                 6881 	.db	100
   01B1 65                 6882 	.db	101
   01B2 00                 6883 	.db	0
   01B3                    6884 .L14:
   01B3 45                 6885 	.db	69
   01B4 6E                 6886 	.db	110
   01B5 76                 6887 	.db	118
   01B6 20                 6888 	.db	32
ASxxxx Assembler V01.75  (GameBoy Z80-like CPU), page 124.



   01B7 49                 6889 	.db	73
   01B8 6E                 6890 	.db	110
   01B9 69                 6891 	.db	105
   01BA 74                 6892 	.db	116
   01BB 00                 6893 	.db	0
   01BC                    6894 .L13:
   01BC 53                 6895 	.db	83
   01BD 6F                 6896 	.db	111
   01BE 75                 6897 	.db	117
   01BF 6E                 6898 	.db	110
   01C0 64                 6899 	.db	100
   01C1 20                 6900 	.db	32
   01C2 4C                 6901 	.db	76
   01C3 65                 6902 	.db	101
   01C4 6E                 6903 	.db	110
   01C5 00                 6904 	.db	0
   01C6                    6905 .L12:
   01C6 50                 6906 	.db	80
   01C7 61                 6907 	.db	97
   01C8 74                 6908 	.db	116
   01C9 20                 6909 	.db	32
   01CA 44                 6910 	.db	68
   01CB 75                 6911 	.db	117
   01CC 74                 6912 	.db	116
   01CD 79                 6913 	.db	121
   01CE 00                 6914 	.db	0
   01CF                    6915 .L11:
   01CF 53                 6916 	.db	83
   01D0 77                 6917 	.db	119
   01D1 70                 6918 	.db	112
   01D2 20                 6919 	.db	32
   01D3 53                 6920 	.db	83
   01D4 68                 6921 	.db	104
   01D5 69                 6922 	.db	105
   01D6 66                 6923 	.db	102
   01D7 74                 6924 	.db	116
   01D8 73                 6925 	.db	115
   01D9 00                 6926 	.db	0
   01DA                    6927 .L10:
   01DA 53                 6928 	.db	83
   01DB 77                 6929 	.db	119
   01DC 70                 6930 	.db	112
   01DD 20                 6931 	.db	32
   01DE 4D                 6932 	.db	77
   01DF 6F                 6933 	.db	111
   01E0 64                 6934 	.db	100
   01E1 65                 6935 	.db	101
   01E2 00                 6936 	.db	0
   01E3                    6937 .L9:
   01E3 53                 6938 	.db	83
   01E4 77                 6939 	.db	119
   01E5 70                 6940 	.db	112
   01E6 20                 6941 	.db	32
   01E7 54                 6942 	.db	84
   01E8 69                 6943 	.db	105
   01E9 6D                 6944 	.db	109
ASxxxx Assembler V01.75  (GameBoy Z80-like CPU), page 125.



   01EA 65                 6945 	.db	101
   01EB 00                 6946 	.db	0
   01EC                    6947 .L8:
   01EC 53                 6948 	.db	83
   01ED 6F                 6949 	.db	111
   01EE 75                 6950 	.db	117
   01EF 6E                 6951 	.db	110
   01F0 64                 6952 	.db	100
   01F1 20                 6953 	.db	32
   01F2 4D                 6954 	.db	77
   01F3 6F                 6955 	.db	111
   01F4 64                 6956 	.db	100
   01F5 65                 6957 	.db	101
   01F6 20                 6958 	.db	32
   01F7 23                 6959 	.db	35
   01F8 31                 6960 	.db	49
   01F9 00                 6961 	.db	0
   01FA                    6962 .L7:
   01FA 53                 6963 	.db	83
   01FB 4F                 6964 	.db	79
   01FC 32                 6965 	.db	50
   01FD 20                 6966 	.db	32
   01FE 56                 6967 	.db	86
   01FF 6F                 6968 	.db	111
   0200 6C                 6969 	.db	108
   0201 75                 6970 	.db	117
   0202 6D                 6971 	.db	109
   0203 65                 6972 	.db	101
   0204 00                 6973 	.db	0
   0205                    6974 .L6:
   0205 53                 6975 	.db	83
   0206 4F                 6976 	.db	79
   0207 31                 6977 	.db	49
   0208 20                 6978 	.db	32
   0209 56                 6979 	.db	86
   020A 6F                 6980 	.db	111
   020B 6C                 6981 	.db	108
   020C 75                 6982 	.db	117
   020D 6D                 6983 	.db	109
   020E 65                 6984 	.db	101
   020F 00                 6985 	.db	0
   0210                    6986 .L5:
   0210 56                 6987 	.db	86
   0211 69                 6988 	.db	105
   0212 6E                 6989 	.db	110
   0213 2D                 6990 	.db	45
   0214 3E                 6991 	.db	62
   0215 53                 6992 	.db	83
   0216 4F                 6993 	.db	79
   0217 32                 6994 	.db	50
   0218 00                 6995 	.db	0
   0219                    6996 .L4:
   0219 56                 6997 	.db	86
   021A 69                 6998 	.db	105
   021B 6E                 6999 	.db	110
   021C 2D                 7000 	.db	45
ASxxxx Assembler V01.75  (GameBoy Z80-like CPU), page 126.



   021D 3E                 7001 	.db	62
   021E 53                 7002 	.db	83
   021F 4F                 7003 	.db	79
   0220 31                 7004 	.db	49
   0221 00                 7005 	.db	0
   0222                    7006 .L3:
   0222 41                 7007 	.db	65
   0223 6C                 7008 	.db	108
   0224 6C                 7009 	.db	108
   0225 20                 7010 	.db	32
   0226 4F                 7011 	.db	79
   0227 6E                 7012 	.db	110
   0228 2F                 7013 	.db	47
   0229 4F                 7014 	.db	79
   022A 66                 7015 	.db	102
   022B 66                 7016 	.db	102
   022C 00                 7017 	.db	0
   022D                    7018 .L2:
   022D 4D                 7019 	.db	77
   022E 61                 7020 	.db	97
   022F 69                 7021 	.db	105
   0230 6E                 7022 	.db	110
   0231 20                 7023 	.db	32
   0232 43                 7024 	.db	67
   0233 6F                 7025 	.db	111
   0234 6E                 7026 	.db	110
   0235 74                 7027 	.db	116
   0236 72                 7028 	.db	114
   0237 6F                 7029 	.db	111
   0238 6C                 7030 	.db	108
   0239 73                 7031 	.db	115
   023A 00                 7032 	.db	0
                           7033 	;; _LIT ends
                           7034 	;; End of program
ASxxxx Assembler V01.75  (GameBoy Z80-like CPU), page 127.

Symbol Table

  2 .L10                               01DA R
  0 .L100                              054B R
  0 .L101                              0564 R
  0 .L102                              0585 R
  0 .L103                              05A4 R
  0 .L104                              05BD R
  0 .L105                              05DE R
  0 .L106                              05FD R
  0 .L107                              0616 R
  0 .L108                              063B R
  0 .L109                              065A R
  2 .L11                               01CF R
  0 .L110                              0681 R
  2 .L111                              0048 R
  2 .L112                              00F3 R
  0 .L113                              0016 R
  0 .L114                              00E4 R
  0 .L115                              0281 R
  0 .L116                              03F6 R
  0 .L117                              0539 R
  0 .L118                              1960 R
  0 .L119                              0A78 R
  2 .L12                               01C6 R
  0 .L120                              1960 R
  0 .L123                              06E6 R
  0 .L124                              0738 R
  0 .L125                              0782 R
  0 .L126                              07D4 R
  0 .L127                              0818 R
  0 .L128                              0864 R
  0 .L129                              08A0 R
  2 .L13                               01BC R
  0 .L130                              06D4 R
  2 .L131                              005E R
  0 .L132                              0EB6 R
  0 .L133                              1960 R
  0 .L136                              0AB1 R
  0 .L137                              0AF1 R
  0 .L138                              0B2F R
  0 .L139                              0B67 R
  2 .L14                               01B3 R
  0 .L140                              0BAD R
  0 .L141                              0BE7 R
  0 .L142                              0C2B R
  0 .L143                              0C6D R
  0 .L144                              0CA9 R
  0 .L145                              0D11 R
  0 .L146                              0D61 R
  0 .L147                              0DA5 R
  0 .L148                              0DF1 R
  0 .L149                              0E35 R
  2 .L15                               01AA R
  0 .L150                              0A9F R
  2 .L151                              0068 R
  0 .L152                              127D R
  0 .L153                              1960 R
  0 .L156                              0EEF R
  0 .L157                              0F46 R
  0 .L158                              0F8A R
  0 .L159                              0FD6 R
  2 .L16                               019F R
  0 .L160                              1020 R
  0 .L161                              1064 R
  0 .L162                              10D2 R
  0 .L163                              1122 R
  0 .L164                              1168 R
  0 .L165                              11B6 R
  0 .L166                              11FC R
  0 .L167                              0EDD R
  2 .L168                              0082 R
  0 .L169                              159E R
  2 .L17                               0195 R
  0 .L170                              1960 R
  0 .L173                              12B6 R
  0 .L174                              1308 R
  0 .L175                              1331 R
  0 .L176                              137F R
  0 .L177                              13ED R
  0 .L178                              143D R
  0 .L179                              1485 R
  2 .L18                               018C R
  0 .L180                              14D5 R
  0 .L181                              151D R
  0 .L182                              12A4 R
  2 .L183                              0096 R
  0 .L184                              1960 R
  0 .L186                              1960 R
  0 .L187                              1960 R
  0 .L188                              15D1 R
  0 .L189                              1615 R
  2 .L19                               0181 R
  0 .L190                              1661 R
  0 .L191                              16AB R
  0 .L192                              16EF R
  0 .L193                              173B R
  0 .L194                              1785 R
  0 .L195                              17C9 R
  0 .L196                              1819 R
  0 .L197                              1863 R
  0 .L198                              18B5 R
  0 .L199                              18FF R
  2 .L2                                022D R
  2 .L20                               0176 R
  0 .L200                              15C5 R
  2 .L201                              00A6 R
  0 .L202                              06C2 R
  0 .L203                              0A8D R
  0 .L204                              0ECB R
  0 .L205                              1292 R
  0 .L206                              15B3 R
  0 .L207                              1A2F R
  0 .L208                              1990 R
  0 .L209                              19F6 R
  2 .L21                               016F R
  0 .L211                              19F9 R
  0 .L212                              1A2B R
  0 .L213                              1AB2 R
  0 .L214                              1A3A R
  0 .L215                              1AA0 R
  0 .L217                              1A8F R
  2 .L219                              00F1 R
  2 .L22                               0161 R
  2 .L220                              00EF R
  0 .L221                              1BD0 R
  2 .L222                              00E1 R
  0 .L223                              1ADB R
  0 .L224                              1BC1 R
  0 .L226                              1BC7 R
  0 .L227                              1AED R
  0 .L229                              1AEA R
  2 .L23                               0155 R
  0 .L230                              1B18 R
  0 .L231                              1B33 R
  2 .L232                              00DC R
  0 .L233                              1B6B R
  0 .L234                              1B86 R
  0 .L235                              1BAE R
  0 .L237                              1FF5 R
  0 .L238                              1BDA R
  0 .L239                              1FF2 R
  2 .L24                               0147 R
  0 .L241                              1C1E R
  0 .L242                              1FEF R
  0 .L243                              1FF2 R
  0 .L244                              1C6F R
  0 .L245                              1FE1 R
  0 .L246                              1C56 R
  0 .L248                              1CBC R
  0 .L249                              1FE1 R
  2 .L25                               013A R
  0 .L250                              1CA3 R
  0 .L252                              1DCD R
  0 .L253                              1FE1 R
  0 .L256                              1D46 R
  0 .L257                              1D7A R
  0 .L259                              1D21 R
  2 .L26                               012C R
  0 .L260                              1D2B R
  2 .L261                              00DA R
  0 .L262                              1D62 R
  0 .L263                              1D7A R
  2 .L264                              00D5 R
  0 .L265                              1F6F R
  0 .L266                              1FE1 R
  0 .L269                              1ECC R
  2 .L27                               011E R
  0 .L270                              1F1C R
  0 .L272                              1EA7 R
  0 .L273                              1EBF R
  0 .L274                              1F04 R
  0 .L275                              1F1C R
  0 .L276                              1FB0 R
  0 .L277                              1FE1 R
  0 .L278                              1F93 R
  0 .L279                              1FAA R
  2 .L28                               0110 R
  0 .L280                              1FE1 R
  0 .L282                              1FCE R
  0 .L283                              1FDB R
  2 .L284                              00D3 R
  0 .L285                              1CEF R
  0 .L286                              1D0E R
  0 .L287                              1E23 R
  0 .L288                              1E78 R
  0 .L289                              2187 R
  2 .L29                               0102 R
  2 .L290                              00BC R
  0 .L291                              2004 R
  2 .L3                                0222 R
  2 .L30                               00F5 R
  0 .L36                               06A8 R
  0 .L37                               00CF R
  0 .L38                               06A0 R
  2 .L4                                0219 R
  0 .L41                               0028 R
  0 .L42                               004F R
  0 .L43                               006E R
  0 .L44                               0095 R
  0 .L45                               00AE R
  2 .L46                               0000 R
  0 .L47                               026C R
  0 .L48                               06A0 R
  2 .L5                                0210 R
  0 .L51                               0102 R
  0 .L52                               011D R
  0 .L53                               0136 R
  0 .L54                               0149 R
  0 .L55                               0169 R
  0 .L56                               017D R
  0 .L57                               019A R
  0 .L58                               01B5 R
  0 .L59                               01CA R
  2 .L6                                0205 R
  0 .L60                               01F4 R
  0 .L61                               0219 R
  0 .L62                               0232 R
  0 .L63                               0253 R
  0 .L64                               00F6 R
  2 .L65                               000A R
  0 .L66                               03E1 R
  0 .L67                               06A0 R
  2 .L7                                01FA R
  0 .L70                               029F R
  0 .L71                               02C4 R
  0 .L72                               02DD R
  0 .L73                               02FE R
  0 .L74                               031D R
  0 .L75                               0336 R
  0 .L76                               0363 R
  0 .L77                               0388 R
  0 .L78                               03A3 R
  0 .L79                               03C6 R
  2 .L8                                01EC R
  0 .L80                               0293 R
  2 .L81                               0024 R
  0 .L82                               0524 R
  0 .L83                               06A0 R
  0 .L86                               0414 R
  0 .L87                               043B R
  0 .L88                               0450 R
  0 .L89                               0473 R
  2 .L9                                01E3 R
  0 .L90                               04A0 R
  0 .L91                               04C5 R
  0 .L92                               04E2 R
  0 .L93                               0507 R
  0 .L94                               0408 R
  2 .L95                               0038 R
  0 .L96                               06A0 R
  0 .L98                               06A0 R
    .modu8                             **** GX
    _cls                               **** GX
  0 _current_value                     0000 GR
    _delay                             **** GX
  0 _draw_screen                       1964 GR
  0 _dump_registers                    1AB4 GR
  0 _end_current_value                 06AA R
  0 _end_draw_screen                   1A32 R
  0 _end_dump_registers                1BD4 R
  0 _end_main                          218A R
  0 _end_play_music                    1AB4 R
  0 _end_update_value                  1964 R
  0 _end_wait_event                    1FF9 R
  1 _frequencies                       0000 GR
    _gotoxy                            **** GX
    _joypad                            **** GX
  0 _main                              1FF9 GR
  1 _music                             0090 GR
  3 _params                            0002 GR
  1 _params_0                          00C1 GR
  1 _params_1                          00DD GR
  1 _params_2                          0119 GR
  1 _params_3                          0149 GR
  1 _params_4                          0171 GR
  1 _params_array                      01A5 GR
  0 _play_music                        1A32 GR
    _print                             **** GX
    _println                           **** GX
    _printn                            **** GX
    _putchar                           **** GX
    _setchar                           **** GX
  3 _soundReg                          0000 GR
  0 _start_current_value               0000 R
  0 _start_draw_screen                 1964 R
  0 _start_dump_registers              1AB4 R
  0 _start_main                        1FF9 R
  0 _start_play_music                  1A32 R
  0 _start_update_value                06AA R
  0 _start_wait_event                  1BD4 R
  0 _update_value                      06AA GR
  0 _wait_event                        1BD4 GR
    _waitpadup                         **** GX

ASxxxx Assembler V01.75  (GameBoy Z80-like CPU), page 128.

Area Table

   0 _CODE                              size 218A   flags 0
   1 _DATA                              size  1AF   flags 0
   2 _LIT                               size  23B   flags 0
   3 _BSS                               size    4   flags 0
