;--------------------------------------------------------
; File Created by SDCC : free open source ANSI-C Compiler
; Version 2.9.0 #5416 (Apr  7 2010) (MINGW32)
; This file was generated Fri Jun 11 23:46:47 2010
;--------------------------------------------------------
	.module tancotf
	.optsdcc -mgbz80
	
;--------------------------------------------------------
; Public variables in this module
;--------------------------------------------------------
	.globl _tancotf
;--------------------------------------------------------
;  ram data
;--------------------------------------------------------
	.area _DATA
;--------------------------------------------------------
; overlayable items in  ram 
;--------------------------------------------------------
	.area _OVERLAY
;--------------------------------------------------------
; external initialized ram data
;--------------------------------------------------------
;--------------------------------------------------------
; global & static initialisations
;--------------------------------------------------------
	.area _HOME
	.area _GSINIT
	.area _GSFINAL
	.area _GSINIT
;--------------------------------------------------------
; Home
;--------------------------------------------------------
	.area _HOME
	.area _HOME
;--------------------------------------------------------
; code
;--------------------------------------------------------
	.area _CODE
;../tancotf.c:42: float tancotf(const float x, const int iscotan)
;	---------------------------------
; Function tancotf
; ---------------------------------
_tancotf:
	lda	sp,-30(sp)
;../tancotf.c:47: if (fabsf(x) > YMAX)
	lda	hl,34(sp)
	ld	a,(hl+)
	ld	h,(hl)
	ld	l,a
	push	hl
	lda	hl,34(sp)
	ld	a,(hl+)
	ld	h,(hl)
	ld	l,a
	push	hl
	call	_fabsf
	lda	sp,4(sp)
	push	hl
	lda	hl,6(sp)
	ld	(hl),e
	inc	hl
	ld	(hl),d
	pop	de
	inc	hl
	ld	(hl),e
	inc	hl
	ld	(hl),d
	ld	hl,#0x45C9
	push	hl
	ld	hl,#0x0800
	push	hl
	lda	hl,10(sp)
	ld	a,(hl+)
	ld	h,(hl)
	ld	l,a
	push	hl
	lda	hl,10(sp)
	ld	a,(hl+)
	ld	h,(hl)
	ld	l,a
	push	hl
	call	___fsgt
	lda	sp,8(sp)
	ld	c,e
	xor	a,a
	or	a,c
	jp	Z,00102$
;../tancotf.c:49: errno = ERANGE;
	ld	hl,#_errno
	ld	(hl),#0x22
	ld	hl,#_errno + 1
	ld	(hl),#0x00
;../tancotf.c:50: return 0.0;
	ld	de,#0x0000
	ld	hl,#0x0000
	jp	00115$
00102$:
;../tancotf.c:54: n=(x*TWO_O_PI+(x>0.0?0.5:-0.5)); /*works for +-x*/
	lda	hl,34(sp)
	ld	a,(hl+)
	ld	h,(hl)
	ld	l,a
	push	hl
	lda	hl,34(sp)
	ld	a,(hl+)
	ld	h,(hl)
	ld	l,a
	push	hl
	ld	hl,#0x3F22
	push	hl
	ld	hl,#0xF983
	push	hl
	call	___fsmul
	lda	sp,8(sp)
	push	hl
	lda	hl,6(sp)
	ld	(hl),e
	inc	hl
	ld	(hl),d
	pop	de
	inc	hl
	ld	(hl),e
	inc	hl
	ld	(hl),d
	ld	hl,#0x0000
	push	hl
	ld	hl,#0x0000
	push	hl
	lda	hl,38(sp)
	ld	a,(hl+)
	ld	h,(hl)
	ld	l,a
	push	hl
	lda	hl,38(sp)
	ld	a,(hl+)
	ld	h,(hl)
	ld	l,a
	push	hl
	call	___fsgt
	lda	sp,8(sp)
	ld	c,e
	xor	a,a
	or	a,c
	jp	Z,00117$
	lda	hl,0(sp)
	ld	(hl),#0x00
	inc	hl
	ld	(hl),#0x00
	inc	hl
	ld	(hl),#0x00
	inc	hl
	ld	(hl),#0x3F
	jp	00118$
00117$:
	lda	hl,0(sp)
	ld	(hl),#0x00
	inc	hl
	ld	(hl),#0x00
	inc	hl
	ld	(hl),#0x00
	inc	hl
	ld	(hl),#0xBF
00118$:
	lda	hl,2(sp)
	ld	a,(hl+)
	ld	h,(hl)
	ld	l,a
	push	hl
	lda	hl,2(sp)
	ld	a,(hl+)
	ld	h,(hl)
	ld	l,a
	push	hl
	lda	hl,10(sp)
	ld	a,(hl+)
	ld	h,(hl)
	ld	l,a
	push	hl
	lda	hl,10(sp)
	ld	a,(hl+)
	ld	h,(hl)
	ld	l,a
	push	hl
	call	___fsadd
	lda	sp,8(sp)
	push	hl
	lda	hl,2(sp)
	ld	(hl),e
	inc	hl
	ld	(hl),d
	pop	de
	inc	hl
	ld	(hl),e
	inc	hl
	ld	(hl),d
	lda	hl,2(sp)
	ld	a,(hl+)
	ld	h,(hl)
	ld	l,a
	push	hl
	lda	hl,2(sp)
	ld	a,(hl+)
	ld	h,(hl)
	ld	l,a
	push	hl
	call	___fs2sint
	lda	sp,4(sp)
	ld	b,d
	ld	c,e
	lda	hl,8(sp)
	ld	(hl),c
	inc	hl
	ld	(hl),b
;../tancotf.c:55: xn=n;
	dec	hl
	ld	a,(hl+)
	ld	h,(hl)
	ld	l,a
	push	hl
	call	___sint2fs
	lda	sp,2(sp)
	push	hl
	lda	hl,20(sp)
	ld	(hl),e
	inc	hl
	ld	(hl),d
	pop	de
	inc	hl
	ld	(hl),e
	inc	hl
	ld	(hl),d
;../tancotf.c:57: xnum=(int)x;
	lda	hl,34(sp)
	ld	a,(hl+)
	ld	h,(hl)
	ld	l,a
	push	hl
	lda	hl,34(sp)
	ld	a,(hl+)
	ld	h,(hl)
	ld	l,a
	push	hl
	call	___fs2sint
	lda	sp,4(sp)
	ld	b,d
	ld	c,e
	push	bc
	call	___sint2fs
	lda	sp,2(sp)
	push	hl
	lda	hl,16(sp)
	ld	(hl),e
	inc	hl
	ld	(hl),d
	pop	de
	inc	hl
	ld	(hl),e
	inc	hl
	ld	(hl),d
;../tancotf.c:58: xden=x-xnum;
	lda	hl,16(sp)
	ld	a,(hl+)
	ld	h,(hl)
	ld	l,a
	push	hl
	lda	hl,16(sp)
	ld	a,(hl+)
	ld	h,(hl)
	ld	l,a
	push	hl
	lda	hl,38(sp)
	ld	a,(hl+)
	ld	h,(hl)
	ld	l,a
	push	hl
	lda	hl,38(sp)
	ld	a,(hl+)
	ld	h,(hl)
	ld	l,a
	push	hl
	call	___fssub
	lda	sp,8(sp)
	push	hl
	lda	hl,12(sp)
	ld	(hl),e
	inc	hl
	ld	(hl),d
	pop	de
	inc	hl
	ld	(hl),e
	inc	hl
	ld	(hl),d
;../tancotf.c:59: f=((xnum-xn*C1)+xden)-xn*C2;
	lda	hl,20(sp)
	ld	a,(hl+)
	ld	h,(hl)
	ld	l,a
	push	hl
	lda	hl,20(sp)
	ld	a,(hl+)
	ld	h,(hl)
	ld	l,a
	push	hl
	ld	hl,#0x3FC9
	push	hl
	ld	hl,#0x0000
	push	hl
	call	___fsmul
	lda	sp,8(sp)
	push	hl
	lda	hl,2(sp)
	ld	(hl),e
	inc	hl
	ld	(hl),d
	pop	de
	inc	hl
	ld	(hl),e
	inc	hl
	ld	(hl),d
	lda	hl,2(sp)
	ld	a,(hl+)
	ld	h,(hl)
	ld	l,a
	push	hl
	lda	hl,2(sp)
	ld	a,(hl+)
	ld	h,(hl)
	ld	l,a
	push	hl
	lda	hl,20(sp)
	ld	a,(hl+)
	ld	h,(hl)
	ld	l,a
	push	hl
	lda	hl,20(sp)
	ld	a,(hl+)
	ld	h,(hl)
	ld	l,a
	push	hl
	call	___fssub
	lda	sp,8(sp)
	push	hl
	lda	hl,2(sp)
	ld	(hl),e
	inc	hl
	ld	(hl),d
	pop	de
	inc	hl
	ld	(hl),e
	inc	hl
	ld	(hl),d
	lda	hl,12(sp)
	ld	a,(hl+)
	ld	h,(hl)
	ld	l,a
	push	hl
	lda	hl,12(sp)
	ld	a,(hl+)
	ld	h,(hl)
	ld	l,a
	push	hl
	lda	hl,6(sp)
	ld	a,(hl+)
	ld	h,(hl)
	ld	l,a
	push	hl
	lda	hl,6(sp)
	ld	a,(hl+)
	ld	h,(hl)
	ld	l,a
	push	hl
	call	___fsadd
	lda	sp,8(sp)
	push	hl
	lda	hl,2(sp)
	ld	(hl),e
	inc	hl
	ld	(hl),d
	pop	de
	inc	hl
	ld	(hl),e
	inc	hl
	ld	(hl),d
	lda	hl,20(sp)
	ld	a,(hl+)
	ld	h,(hl)
	ld	l,a
	push	hl
	lda	hl,20(sp)
	ld	a,(hl+)
	ld	h,(hl)
	ld	l,a
	push	hl
	ld	hl,#0x39FD
	push	hl
	ld	hl,#0xAA22
	push	hl
	call	___fsmul
	lda	sp,8(sp)
	push	hl
	lda	hl,6(sp)
	ld	(hl),e
	inc	hl
	ld	(hl),d
	pop	de
	inc	hl
	ld	(hl),e
	inc	hl
	ld	(hl),d
	lda	hl,6(sp)
	ld	a,(hl+)
	ld	h,(hl)
	ld	l,a
	push	hl
	lda	hl,6(sp)
	ld	a,(hl+)
	ld	h,(hl)
	ld	l,a
	push	hl
	lda	hl,6(sp)
	ld	a,(hl+)
	ld	h,(hl)
	ld	l,a
	push	hl
	lda	hl,6(sp)
	ld	a,(hl+)
	ld	h,(hl)
	ld	l,a
	push	hl
	call	___fssub
	lda	sp,8(sp)
	push	hl
	lda	hl,28(sp)
	ld	(hl),e
	inc	hl
	ld	(hl),d
	pop	de
	inc	hl
	ld	(hl),e
	inc	hl
	ld	(hl),d
;../tancotf.c:61: if (fabsf(f) < EPS)
	lda	hl,28(sp)
	ld	a,(hl+)
	ld	h,(hl)
	ld	l,a
	push	hl
	lda	hl,28(sp)
	ld	a,(hl+)
	ld	h,(hl)
	ld	l,a
	push	hl
	call	_fabsf
	lda	sp,4(sp)
	push	hl
	lda	hl,2(sp)
	ld	(hl),e
	inc	hl
	ld	(hl),d
	pop	de
	inc	hl
	ld	(hl),e
	inc	hl
	ld	(hl),d
	ld	hl,#0x3980
	push	hl
	ld	hl,#0x0000
	push	hl
	lda	hl,6(sp)
	ld	a,(hl+)
	ld	h,(hl)
	ld	l,a
	push	hl
	lda	hl,6(sp)
	ld	a,(hl+)
	ld	h,(hl)
	ld	l,a
	push	hl
	call	___fslt
	lda	sp,8(sp)
	ld	c,e
	xor	a,a
	or	a,c
	jp	Z,00104$
;../tancotf.c:63: xnum = f;
	lda	hl,26(sp)
	ld	d,h
	ld	e,l
	lda	hl,14(sp)
	ld	a,(de)
	ld	(hl+),a
	inc	de
	ld	a,(de)
	ld	(hl+),a
	inc	de
	ld	a,(de)
	ld	(hl+),a
	inc	de
	ld	a,(de)
	ld	(hl),a
;../tancotf.c:64: xden = 1.0;
	lda	hl,10(sp)
	ld	(hl),#0x00
	inc	hl
	ld	(hl),#0x00
	inc	hl
	ld	(hl),#0x80
	inc	hl
	ld	(hl),#0x3F
	jp	00105$
00104$:
;../tancotf.c:68: g = f*f;
	lda	hl,28(sp)
	ld	a,(hl+)
	ld	h,(hl)
	ld	l,a
	push	hl
	lda	hl,28(sp)
	ld	a,(hl+)
	ld	h,(hl)
	ld	l,a
	push	hl
	lda	hl,32(sp)
	ld	a,(hl+)
	ld	h,(hl)
	ld	l,a
	push	hl
	lda	hl,32(sp)
	ld	a,(hl+)
	ld	h,(hl)
	ld	l,a
	push	hl
	call	___fsmul
	lda	sp,8(sp)
	push	hl
	lda	hl,24(sp)
	ld	(hl),e
	inc	hl
	ld	(hl),d
	pop	de
	inc	hl
	ld	(hl),e
	inc	hl
	ld	(hl),d
;../tancotf.c:69: xnum = P(f,g);
	lda	hl,24(sp)
	ld	a,(hl+)
	ld	h,(hl)
	ld	l,a
	push	hl
	lda	hl,24(sp)
	ld	a,(hl+)
	ld	h,(hl)
	ld	l,a
	push	hl
	ld	hl,#0xBDC4
	push	hl
	ld	hl,#0x33B8
	push	hl
	call	___fsmul
	lda	sp,8(sp)
	push	hl
	lda	hl,2(sp)
	ld	(hl),e
	inc	hl
	ld	(hl),d
	pop	de
	inc	hl
	ld	(hl),e
	inc	hl
	ld	(hl),d
	lda	hl,28(sp)
	ld	a,(hl+)
	ld	h,(hl)
	ld	l,a
	push	hl
	lda	hl,28(sp)
	ld	a,(hl+)
	ld	h,(hl)
	ld	l,a
	push	hl
	lda	hl,6(sp)
	ld	a,(hl+)
	ld	h,(hl)
	ld	l,a
	push	hl
	lda	hl,6(sp)
	ld	a,(hl+)
	ld	h,(hl)
	ld	l,a
	push	hl
	call	___fsmul
	lda	sp,8(sp)
	push	hl
	lda	hl,2(sp)
	ld	(hl),e
	inc	hl
	ld	(hl),d
	pop	de
	inc	hl
	ld	(hl),e
	inc	hl
	ld	(hl),d
	lda	hl,28(sp)
	ld	a,(hl+)
	ld	h,(hl)
	ld	l,a
	push	hl
	lda	hl,28(sp)
	ld	a,(hl+)
	ld	h,(hl)
	ld	l,a
	push	hl
	lda	hl,6(sp)
	ld	a,(hl+)
	ld	h,(hl)
	ld	l,a
	push	hl
	lda	hl,6(sp)
	ld	a,(hl+)
	ld	h,(hl)
	ld	l,a
	push	hl
	call	___fsadd
	lda	sp,8(sp)
	push	hl
	lda	hl,2(sp)
	ld	(hl),e
	inc	hl
	ld	(hl),d
	pop	de
	inc	hl
	ld	(hl),e
	inc	hl
	ld	(hl),d
	lda	hl,0(sp)
	ld	d,h
	ld	e,l
	lda	hl,14(sp)
	ld	a,(de)
	ld	(hl+),a
	inc	de
	ld	a,(de)
	ld	(hl+),a
	inc	de
	ld	a,(de)
	ld	(hl+),a
	inc	de
	ld	a,(de)
	ld	(hl),a
;../tancotf.c:70: xden = Q(g);
	lda	hl,24(sp)
	ld	a,(hl+)
	ld	h,(hl)
	ld	l,a
	push	hl
	lda	hl,24(sp)
	ld	a,(hl+)
	ld	h,(hl)
	ld	l,a
	push	hl
	ld	hl,#0x3C1F
	push	hl
	ld	hl,#0x3375
	push	hl
	call	___fsmul
	lda	sp,8(sp)
	push	hl
	lda	hl,2(sp)
	ld	(hl),e
	inc	hl
	ld	(hl),d
	pop	de
	inc	hl
	ld	(hl),e
	inc	hl
	ld	(hl),d
	ld	hl,#0xBEDB
	push	hl
	ld	hl,#0xB7AF
	push	hl
	lda	hl,6(sp)
	ld	a,(hl+)
	ld	h,(hl)
	ld	l,a
	push	hl
	lda	hl,6(sp)
	ld	a,(hl+)
	ld	h,(hl)
	ld	l,a
	push	hl
	call	___fsadd
	lda	sp,8(sp)
	push	hl
	lda	hl,2(sp)
	ld	(hl),e
	inc	hl
	ld	(hl),d
	pop	de
	inc	hl
	ld	(hl),e
	inc	hl
	ld	(hl),d
	lda	hl,24(sp)
	ld	a,(hl+)
	ld	h,(hl)
	ld	l,a
	push	hl
	lda	hl,24(sp)
	ld	a,(hl+)
	ld	h,(hl)
	ld	l,a
	push	hl
	lda	hl,6(sp)
	ld	a,(hl+)
	ld	h,(hl)
	ld	l,a
	push	hl
	lda	hl,6(sp)
	ld	a,(hl+)
	ld	h,(hl)
	ld	l,a
	push	hl
	call	___fsmul
	lda	sp,8(sp)
	push	hl
	lda	hl,2(sp)
	ld	(hl),e
	inc	hl
	ld	(hl),d
	pop	de
	inc	hl
	ld	(hl),e
	inc	hl
	ld	(hl),d
	ld	hl,#0x3F80
	push	hl
	ld	hl,#0x0000
	push	hl
	lda	hl,6(sp)
	ld	a,(hl+)
	ld	h,(hl)
	ld	l,a
	push	hl
	lda	hl,6(sp)
	ld	a,(hl+)
	ld	h,(hl)
	ld	l,a
	push	hl
	call	___fsadd
	lda	sp,8(sp)
	push	hl
	lda	hl,2(sp)
	ld	(hl),e
	inc	hl
	ld	(hl),d
	pop	de
	inc	hl
	ld	(hl),e
	inc	hl
	ld	(hl),d
	lda	hl,0(sp)
	ld	d,h
	ld	e,l
	lda	hl,10(sp)
	ld	a,(de)
	ld	(hl+),a
	inc	de
	ld	a,(de)
	ld	(hl+),a
	inc	de
	ld	a,(de)
	ld	(hl+),a
	inc	de
	ld	a,(de)
	ld	(hl),a
00105$:
;../tancotf.c:73: if(n&1)
	lda	hl,8(sp)
	ld	a,(hl)
	and	a,#0x01
	jr	NZ,00125$
	jp	00113$
00125$:
;../tancotf.c:76: if(iscotan) return (-xnum/xden);
	lda	hl,36(sp)
	ld	a,(hl+)
	or	a,(hl)
	jp	Z,00107$
	lda	hl,17(sp)
	ld	a,(hl)
	xor	a,#0x80
	lda	hl,3(sp)
	ld	(hl),a
	lda	hl,14(sp)
	ld	a,(hl)
	lda	hl,0(sp)
	ld	(hl),a
	lda	hl,15(sp)
	ld	a,(hl)
	lda	hl,1(sp)
	ld	(hl),a
	lda	hl,16(sp)
	ld	a,(hl)
	lda	hl,2(sp)
	ld	(hl),a
	lda	hl,12(sp)
	ld	a,(hl+)
	ld	h,(hl)
	ld	l,a
	push	hl
	lda	hl,12(sp)
	ld	a,(hl+)
	ld	h,(hl)
	ld	l,a
	push	hl
	lda	hl,6(sp)
	ld	a,(hl+)
	ld	h,(hl)
	ld	l,a
	push	hl
	lda	hl,6(sp)
	ld	a,(hl+)
	ld	h,(hl)
	ld	l,a
	push	hl
	call	___fsdiv
	lda	sp,8(sp)
	push	hl
	lda	hl,2(sp)
	ld	(hl),e
	inc	hl
	ld	(hl),d
	pop	de
	inc	hl
	ld	(hl),e
	inc	hl
	ld	(hl),d
	lda	hl,0(sp)
	ld	e,(hl)
	inc	hl
	ld	d,(hl)
	inc	hl
	ld	a,(hl+)
	ld	h,(hl)
	ld	l,a
	jp	00115$
00107$:
;../tancotf.c:77: else return (-xden/xnum);
	lda	hl,13(sp)
	ld	a,(hl)
	xor	a,#0x80
	lda	hl,3(sp)
	ld	(hl),a
	lda	hl,10(sp)
	ld	a,(hl)
	lda	hl,0(sp)
	ld	(hl),a
	lda	hl,11(sp)
	ld	a,(hl)
	lda	hl,1(sp)
	ld	(hl),a
	lda	hl,12(sp)
	ld	a,(hl)
	lda	hl,2(sp)
	ld	(hl),a
	lda	hl,16(sp)
	ld	a,(hl+)
	ld	h,(hl)
	ld	l,a
	push	hl
	lda	hl,16(sp)
	ld	a,(hl+)
	ld	h,(hl)
	ld	l,a
	push	hl
	lda	hl,6(sp)
	ld	a,(hl+)
	ld	h,(hl)
	ld	l,a
	push	hl
	lda	hl,6(sp)
	ld	a,(hl+)
	ld	h,(hl)
	ld	l,a
	push	hl
	call	___fsdiv
	lda	sp,8(sp)
	push	hl
	lda	hl,2(sp)
	ld	(hl),e
	inc	hl
	ld	(hl),d
	pop	de
	inc	hl
	ld	(hl),e
	inc	hl
	ld	(hl),d
	lda	hl,0(sp)
	ld	e,(hl)
	inc	hl
	ld	d,(hl)
	inc	hl
	ld	a,(hl+)
	ld	h,(hl)
	ld	l,a
	jp	00115$
00113$:
;../tancotf.c:81: if(iscotan) return (xden/xnum);
	lda	hl,36(sp)
	ld	a,(hl+)
	or	a,(hl)
	jp	Z,00110$
	lda	hl,16(sp)
	ld	a,(hl+)
	ld	h,(hl)
	ld	l,a
	push	hl
	lda	hl,16(sp)
	ld	a,(hl+)
	ld	h,(hl)
	ld	l,a
	push	hl
	lda	hl,16(sp)
	ld	a,(hl+)
	ld	h,(hl)
	ld	l,a
	push	hl
	lda	hl,16(sp)
	ld	a,(hl+)
	ld	h,(hl)
	ld	l,a
	push	hl
	call	___fsdiv
	lda	sp,8(sp)
	push	hl
	lda	hl,2(sp)
	ld	(hl),e
	inc	hl
	ld	(hl),d
	pop	de
	inc	hl
	ld	(hl),e
	inc	hl
	ld	(hl),d
	lda	hl,0(sp)
	ld	e,(hl)
	inc	hl
	ld	d,(hl)
	inc	hl
	ld	a,(hl+)
	ld	h,(hl)
	ld	l,a
	jp	00115$
00110$:
;../tancotf.c:82: else return (xnum/xden);
	lda	hl,12(sp)
	ld	a,(hl+)
	ld	h,(hl)
	ld	l,a
	push	hl
	lda	hl,12(sp)
	ld	a,(hl+)
	ld	h,(hl)
	ld	l,a
	push	hl
	lda	hl,20(sp)
	ld	a,(hl+)
	ld	h,(hl)
	ld	l,a
	push	hl
	lda	hl,20(sp)
	ld	a,(hl+)
	ld	h,(hl)
	ld	l,a
	push	hl
	call	___fsdiv
	lda	sp,8(sp)
	push	hl
	lda	hl,2(sp)
	ld	(hl),e
	inc	hl
	ld	(hl),d
	pop	de
	inc	hl
	ld	(hl),e
	inc	hl
	ld	(hl),d
	lda	hl,0(sp)
	ld	e,(hl)
	inc	hl
	ld	d,(hl)
	inc	hl
	ld	a,(hl+)
	ld	h,(hl)
	ld	l,a
00115$:
	lda	sp,30(sp)
ret
	.area _CODE
	.area _CABS
