;--------------------------------------------------------
; File Created by SDCC : free open source ANSI-C Compiler
; Version 2.9.0 #5416 (Apr  7 2010) (MINGW32)
; This file was generated Fri Jun 11 23:46:44 2010
;--------------------------------------------------------
	.module expf
	.optsdcc -mgbz80
	
;--------------------------------------------------------
; Public variables in this module
;--------------------------------------------------------
	.globl _expf
;--------------------------------------------------------
;  ram data
;--------------------------------------------------------
	.area _DATA
;--------------------------------------------------------
; overlayable items in  ram 
;--------------------------------------------------------
	.area _OVERLAY
;--------------------------------------------------------
; external initialized ram data
;--------------------------------------------------------
;--------------------------------------------------------
; global & static initialisations
;--------------------------------------------------------
	.area _HOME
	.area _GSINIT
	.area _GSFINAL
	.area _GSINIT
;--------------------------------------------------------
; Home
;--------------------------------------------------------
	.area _HOME
	.area _HOME
;--------------------------------------------------------
; code
;--------------------------------------------------------
	.area _CODE
;../expf.c:320: float expf(const float x)
;	---------------------------------
; Function expf
; ---------------------------------
_expf:
	lda	sp,-31(sp)
;../expf.c:326: if(x>=0.0)
	ld	hl,#0x0000
	push	hl
	ld	hl,#0x0000
	push	hl
	lda	hl,39(sp)
	ld	a,(hl+)
	ld	h,(hl)
	ld	l,a
	push	hl
	lda	hl,39(sp)
	ld	a,(hl+)
	ld	h,(hl)
	ld	l,a
	push	hl
	call	___fslt
	lda	sp,8(sp)
	ld	c,e
	xor	a,a
	or	a,c
	jp	NZ,00102$
;../expf.c:327: { y=x;  sign=0; }
	lda	hl,33(sp)
	ld	d,h
	ld	e,l
	lda	hl,9(sp)
	ld	a,(de)
	ld	(hl+),a
	inc	de
	ld	a,(de)
	ld	(hl+),a
	inc	de
	ld	a,(de)
	ld	(hl+),a
	inc	de
	ld	a,(de)
	ld	(hl),a
	lda	hl,8(sp)
	ld	(hl),#0x00
	jp	00103$
00102$:
;../expf.c:329: { y=-x; sign=1; }
	lda	hl,36(sp)
	ld	a,(hl)
	xor	a,#0x80
	lda	hl,7(sp)
	ld	(hl),a
	lda	hl,33(sp)
	ld	a,(hl)
	lda	hl,4(sp)
	ld	(hl),a
	lda	hl,34(sp)
	ld	a,(hl)
	lda	hl,5(sp)
	ld	(hl),a
	lda	hl,35(sp)
	ld	a,(hl)
	lda	hl,6(sp)
	ld	(hl-),a
	dec	hl
	ld	d,h
	ld	e,l
	lda	hl,9(sp)
	ld	a,(de)
	ld	(hl+),a
	inc	de
	ld	a,(de)
	ld	(hl+),a
	inc	de
	ld	a,(de)
	ld	(hl+),a
	inc	de
	ld	a,(de)
	ld	(hl),a
	lda	hl,8(sp)
	ld	(hl),#0x01
00103$:
;../expf.c:331: if(y<EXPEPS) return 1.0;
	ld	hl,#0x33D6
	push	hl
	ld	hl,#0xBF95
	push	hl
	lda	hl,15(sp)
	ld	a,(hl+)
	ld	h,(hl)
	ld	l,a
	push	hl
	lda	hl,15(sp)
	ld	a,(hl+)
	ld	h,(hl)
	ld	l,a
	push	hl
	call	___fslt
	lda	sp,8(sp)
	ld	b,e
	xor	a,a
	or	a,b
	jp	Z,00105$
	ld	de,#0x0000
	ld	hl,#0x3F80
	jp	00118$
00105$:
;../expf.c:333: if(y>BIGX)
	ld	hl,#0x42B1
	push	hl
	ld	hl,#0x7218
	push	hl
	lda	hl,15(sp)
	ld	a,(hl+)
	ld	h,(hl)
	ld	l,a
	push	hl
	lda	hl,15(sp)
	ld	a,(hl+)
	ld	h,(hl)
	ld	l,a
	push	hl
	call	___fsgt
	lda	sp,8(sp)
	ld	b,e
	xor	a,a
	or	a,b
	jp	Z,00110$
;../expf.c:335: if(sign)
	xor	a,a
	lda	hl,8(sp)
	or	a,(hl)
	jp	Z,00107$
;../expf.c:337: errno=ERANGE;
	ld	hl,#_errno
	ld	(hl),#0x22
	ld	hl,#_errno + 1
	ld	(hl),#0x00
;../expf.c:339: ;
	ld	de,#0xFFFF
	ld	hl,#0x7F7F
	jp	00118$
00107$:
;../expf.c:343: return 0.0;
	ld	de,#0x0000
	ld	hl,#0x0000
	jp	00118$
00110$:
;../expf.c:347: z=y*K1;
	lda	hl,11(sp)
	ld	a,(hl+)
	ld	h,(hl)
	ld	l,a
	push	hl
	lda	hl,11(sp)
	ld	a,(hl+)
	ld	h,(hl)
	ld	l,a
	push	hl
	ld	hl,#0x3FB8
	push	hl
	ld	hl,#0xAA3B
	push	hl
	call	___fsmul
	lda	sp,8(sp)
	push	hl
	lda	hl,15(sp)
	ld	(hl),e
	inc	hl
	ld	(hl),d
	pop	de
	inc	hl
	ld	(hl),e
	inc	hl
	ld	(hl),d
;../expf.c:348: n=z;
	lda	hl,15(sp)
	ld	a,(hl+)
	ld	h,(hl)
	ld	l,a
	push	hl
	lda	hl,15(sp)
	ld	a,(hl+)
	ld	h,(hl)
	ld	l,a
	push	hl
	call	___fs2sint
	lda	sp,4(sp)
	ld	b,d
	ld	c,e
	lda	hl,29(sp)
	ld	(hl),c
	inc	hl
	ld	(hl),b
;../expf.c:350: if(n<0) --n;
	ld	a,(hl)
	bit	7,a
	jp	Z,00112$
	dec	hl
	ld	e,(hl)
	inc	hl
	ld	d,(hl)
	dec	de
	dec	hl
	ld	(hl),e
	inc	hl
	ld	(hl),d
00112$:
;../expf.c:351: if(z-n>=0.5) ++n;
	lda	hl,29(sp)
	ld	a,(hl+)
	ld	h,(hl)
	ld	l,a
	push	hl
	call	___sint2fs
	lda	sp,2(sp)
	push	hl
	lda	hl,6(sp)
	ld	(hl),e
	inc	hl
	ld	(hl),d
	pop	de
	inc	hl
	ld	(hl),e
	inc	hl
	ld	(hl),d
	lda	hl,6(sp)
	ld	a,(hl+)
	ld	h,(hl)
	ld	l,a
	push	hl
	lda	hl,6(sp)
	ld	a,(hl+)
	ld	h,(hl)
	ld	l,a
	push	hl
	lda	hl,19(sp)
	ld	a,(hl+)
	ld	h,(hl)
	ld	l,a
	push	hl
	lda	hl,19(sp)
	ld	a,(hl+)
	ld	h,(hl)
	ld	l,a
	push	hl
	call	___fssub
	lda	sp,8(sp)
	push	hl
	lda	hl,6(sp)
	ld	(hl),e
	inc	hl
	ld	(hl),d
	pop	de
	inc	hl
	ld	(hl),e
	inc	hl
	ld	(hl),d
	ld	hl,#0x3F00
	push	hl
	ld	hl,#0x0000
	push	hl
	lda	hl,10(sp)
	ld	a,(hl+)
	ld	h,(hl)
	ld	l,a
	push	hl
	lda	hl,10(sp)
	ld	a,(hl+)
	ld	h,(hl)
	ld	l,a
	push	hl
	call	___fslt
	lda	sp,8(sp)
	ld	c,e
	xor	a,a
	or	a,c
	jp	NZ,00114$
	lda	hl,29(sp)
	inc	(hl)
	jr	NZ,00127$
	inc	hl
	inc	(hl)
00127$:
00114$:
;../expf.c:352: xn=n;
	lda	hl,29(sp)
	ld	a,(hl+)
	ld	h,(hl)
	ld	l,a
	push	hl
	call	___sint2fs
	lda	sp,2(sp)
	push	hl
	lda	hl,27(sp)
	ld	(hl),e
	inc	hl
	ld	(hl),d
	pop	de
	inc	hl
	ld	(hl),e
	inc	hl
	ld	(hl),d
;../expf.c:353: g=((y-xn*C1))-xn*C2;
	lda	hl,27(sp)
	ld	a,(hl+)
	ld	h,(hl)
	ld	l,a
	push	hl
	lda	hl,27(sp)
	ld	a,(hl+)
	ld	h,(hl)
	ld	l,a
	push	hl
	ld	hl,#0x3F31
	push	hl
	ld	hl,#0x8000
	push	hl
	call	___fsmul
	lda	sp,8(sp)
	push	hl
	lda	hl,6(sp)
	ld	(hl),e
	inc	hl
	ld	(hl),d
	pop	de
	inc	hl
	ld	(hl),e
	inc	hl
	ld	(hl),d
	lda	hl,6(sp)
	ld	a,(hl+)
	ld	h,(hl)
	ld	l,a
	push	hl
	lda	hl,6(sp)
	ld	a,(hl+)
	ld	h,(hl)
	ld	l,a
	push	hl
	lda	hl,15(sp)
	ld	a,(hl+)
	ld	h,(hl)
	ld	l,a
	push	hl
	lda	hl,15(sp)
	ld	a,(hl+)
	ld	h,(hl)
	ld	l,a
	push	hl
	call	___fssub
	lda	sp,8(sp)
	push	hl
	lda	hl,6(sp)
	ld	(hl),e
	inc	hl
	ld	(hl),d
	pop	de
	inc	hl
	ld	(hl),e
	inc	hl
	ld	(hl),d
	lda	hl,27(sp)
	ld	a,(hl+)
	ld	h,(hl)
	ld	l,a
	push	hl
	lda	hl,27(sp)
	ld	a,(hl+)
	ld	h,(hl)
	ld	l,a
	push	hl
	ld	hl,#0xB95E
	push	hl
	ld	hl,#0x8083
	push	hl
	call	___fsmul
	lda	sp,8(sp)
	push	hl
	lda	hl,2(sp)
	ld	(hl),e
	inc	hl
	ld	(hl),d
	pop	de
	inc	hl
	ld	(hl),e
	inc	hl
	ld	(hl),d
	lda	hl,2(sp)
	ld	a,(hl+)
	ld	h,(hl)
	ld	l,a
	push	hl
	lda	hl,2(sp)
	ld	a,(hl+)
	ld	h,(hl)
	ld	l,a
	push	hl
	lda	hl,10(sp)
	ld	a,(hl+)
	ld	h,(hl)
	ld	l,a
	push	hl
	lda	hl,10(sp)
	ld	a,(hl+)
	ld	h,(hl)
	ld	l,a
	push	hl
	call	___fssub
	lda	sp,8(sp)
	push	hl
	lda	hl,23(sp)
	ld	(hl),e
	inc	hl
	ld	(hl),d
	pop	de
	inc	hl
	ld	(hl),e
	inc	hl
	ld	(hl),d
;../expf.c:354: z=g*g;
	lda	hl,23(sp)
	ld	a,(hl+)
	ld	h,(hl)
	ld	l,a
	push	hl
	lda	hl,23(sp)
	ld	a,(hl+)
	ld	h,(hl)
	ld	l,a
	push	hl
	lda	hl,27(sp)
	ld	a,(hl+)
	ld	h,(hl)
	ld	l,a
	push	hl
	lda	hl,27(sp)
	ld	a,(hl+)
	ld	h,(hl)
	ld	l,a
	push	hl
	call	___fsmul
	lda	sp,8(sp)
	push	hl
	lda	hl,2(sp)
	ld	(hl),e
	inc	hl
	ld	(hl),d
	pop	de
	inc	hl
	ld	(hl),e
	inc	hl
	ld	(hl),d
	lda	hl,0(sp)
	ld	d,h
	ld	e,l
	lda	hl,13(sp)
	ld	a,(de)
	ld	(hl+),a
	inc	de
	ld	a,(de)
	ld	(hl+),a
	inc	de
	ld	a,(de)
	ld	(hl+),a
	inc	de
	ld	a,(de)
	ld	(hl),a
;../expf.c:355: r=P(z)*g;
	lda	hl,15(sp)
	ld	a,(hl+)
	ld	h,(hl)
	ld	l,a
	push	hl
	lda	hl,15(sp)
	ld	a,(hl+)
	ld	h,(hl)
	ld	l,a
	push	hl
	ld	hl,#0x3B88
	push	hl
	ld	hl,#0x5308
	push	hl
	call	___fsmul
	lda	sp,8(sp)
	push	hl
	lda	hl,2(sp)
	ld	(hl),e
	inc	hl
	ld	(hl),d
	pop	de
	inc	hl
	ld	(hl),e
	inc	hl
	ld	(hl),d
	ld	hl,#0x3E80
	push	hl
	ld	hl,#0x0000
	push	hl
	lda	hl,6(sp)
	ld	a,(hl+)
	ld	h,(hl)
	ld	l,a
	push	hl
	lda	hl,6(sp)
	ld	a,(hl+)
	ld	h,(hl)
	ld	l,a
	push	hl
	call	___fsadd
	lda	sp,8(sp)
	push	hl
	lda	hl,2(sp)
	ld	(hl),e
	inc	hl
	ld	(hl),d
	pop	de
	inc	hl
	ld	(hl),e
	inc	hl
	ld	(hl),d
	lda	hl,23(sp)
	ld	a,(hl+)
	ld	h,(hl)
	ld	l,a
	push	hl
	lda	hl,23(sp)
	ld	a,(hl+)
	ld	h,(hl)
	ld	l,a
	push	hl
	lda	hl,6(sp)
	ld	a,(hl+)
	ld	h,(hl)
	ld	l,a
	push	hl
	lda	hl,6(sp)
	ld	a,(hl+)
	ld	h,(hl)
	ld	l,a
	push	hl
	call	___fsmul
	lda	sp,8(sp)
	push	hl
	lda	hl,19(sp)
	ld	(hl),e
	inc	hl
	ld	(hl),d
	pop	de
	inc	hl
	ld	(hl),e
	inc	hl
	ld	(hl),d
;../expf.c:356: r=0.5+(r/(Q(z)-r));
	lda	hl,15(sp)
	ld	a,(hl+)
	ld	h,(hl)
	ld	l,a
	push	hl
	lda	hl,15(sp)
	ld	a,(hl+)
	ld	h,(hl)
	ld	l,a
	push	hl
	ld	hl,#0x3D4C
	push	hl
	ld	hl,#0xBF5B
	push	hl
	call	___fsmul
	lda	sp,8(sp)
	push	hl
	lda	hl,2(sp)
	ld	(hl),e
	inc	hl
	ld	(hl),d
	pop	de
	inc	hl
	ld	(hl),e
	inc	hl
	ld	(hl),d
	ld	hl,#0x3F00
	push	hl
	ld	hl,#0x0000
	push	hl
	lda	hl,6(sp)
	ld	a,(hl+)
	ld	h,(hl)
	ld	l,a
	push	hl
	lda	hl,6(sp)
	ld	a,(hl+)
	ld	h,(hl)
	ld	l,a
	push	hl
	call	___fsadd
	lda	sp,8(sp)
	push	hl
	lda	hl,2(sp)
	ld	(hl),e
	inc	hl
	ld	(hl),d
	pop	de
	inc	hl
	ld	(hl),e
	inc	hl
	ld	(hl),d
	lda	hl,19(sp)
	ld	a,(hl+)
	ld	h,(hl)
	ld	l,a
	push	hl
	lda	hl,19(sp)
	ld	a,(hl+)
	ld	h,(hl)
	ld	l,a
	push	hl
	lda	hl,6(sp)
	ld	a,(hl+)
	ld	h,(hl)
	ld	l,a
	push	hl
	lda	hl,6(sp)
	ld	a,(hl+)
	ld	h,(hl)
	ld	l,a
	push	hl
	call	___fssub
	lda	sp,8(sp)
	push	hl
	lda	hl,2(sp)
	ld	(hl),e
	inc	hl
	ld	(hl),d
	pop	de
	inc	hl
	ld	(hl),e
	inc	hl
	ld	(hl),d
	lda	hl,2(sp)
	ld	a,(hl+)
	ld	h,(hl)
	ld	l,a
	push	hl
	lda	hl,2(sp)
	ld	a,(hl+)
	ld	h,(hl)
	ld	l,a
	push	hl
	lda	hl,23(sp)
	ld	a,(hl+)
	ld	h,(hl)
	ld	l,a
	push	hl
	lda	hl,23(sp)
	ld	a,(hl+)
	ld	h,(hl)
	ld	l,a
	push	hl
	call	___fsdiv
	lda	sp,8(sp)
	push	hl
	lda	hl,2(sp)
	ld	(hl),e
	inc	hl
	ld	(hl),d
	pop	de
	inc	hl
	ld	(hl),e
	inc	hl
	ld	(hl),d
	ld	hl,#0x3F00
	push	hl
	ld	hl,#0x0000
	push	hl
	lda	hl,6(sp)
	ld	a,(hl+)
	ld	h,(hl)
	ld	l,a
	push	hl
	lda	hl,6(sp)
	ld	a,(hl+)
	ld	h,(hl)
	ld	l,a
	push	hl
	call	___fsadd
	lda	sp,8(sp)
	push	hl
	lda	hl,2(sp)
	ld	(hl),e
	inc	hl
	ld	(hl),d
	pop	de
	inc	hl
	ld	(hl),e
	inc	hl
	ld	(hl),d
	lda	hl,0(sp)
	ld	d,h
	ld	e,l
	lda	hl,17(sp)
	ld	a,(de)
	ld	(hl+),a
	inc	de
	ld	a,(de)
	ld	(hl+),a
	inc	de
	ld	a,(de)
	ld	(hl+),a
	inc	de
	ld	a,(de)
	ld	(hl),a
;../expf.c:358: n++;
	lda	hl,29(sp)
	inc	(hl)
	jr	NZ,00128$
	inc	hl
	inc	(hl)
00128$:
;../expf.c:359: z=ldexpf(r, n);
	lda	hl,29(sp)
	ld	a,(hl+)
	ld	h,(hl)
	ld	l,a
	push	hl
	lda	hl,21(sp)
	ld	a,(hl+)
	ld	h,(hl)
	ld	l,a
	push	hl
	lda	hl,21(sp)
	ld	a,(hl+)
	ld	h,(hl)
	ld	l,a
	push	hl
	call	_ldexpf
	lda	sp,6(sp)
	push	hl
	lda	hl,2(sp)
	ld	(hl),e
	inc	hl
	ld	(hl),d
	pop	de
	inc	hl
	ld	(hl),e
	inc	hl
	ld	(hl),d
	lda	hl,0(sp)
	ld	d,h
	ld	e,l
	lda	hl,13(sp)
	ld	a,(de)
	ld	(hl+),a
	inc	de
	ld	a,(de)
	ld	(hl+),a
	inc	de
	ld	a,(de)
	ld	(hl+),a
	inc	de
	ld	a,(de)
	ld	(hl),a
;../expf.c:360: if(sign)
	xor	a,a
	lda	hl,8(sp)
	or	a,(hl)
	jp	Z,00116$
;../expf.c:361: return 1.0/z;
	lda	hl,15(sp)
	ld	a,(hl+)
	ld	h,(hl)
	ld	l,a
	push	hl
	lda	hl,15(sp)
	ld	a,(hl+)
	ld	h,(hl)
	ld	l,a
	push	hl
	ld	hl,#0x3F80
	push	hl
	ld	hl,#0x0000
	push	hl
	call	___fsdiv
	lda	sp,8(sp)
	push	hl
	lda	hl,2(sp)
	ld	(hl),e
	inc	hl
	ld	(hl),d
	pop	de
	inc	hl
	ld	(hl),e
	inc	hl
	ld	(hl),d
	lda	hl,0(sp)
	ld	e,(hl)
	inc	hl
	ld	d,(hl)
	inc	hl
	ld	a,(hl+)
	ld	h,(hl)
	ld	l,a
	jp	00118$
00116$:
;../expf.c:363: return z;
	lda	hl,13(sp)
	ld	e,(hl)
	inc	hl
	ld	d,(hl)
	inc	hl
	ld	a,(hl+)
	ld	h,(hl)
	ld	l,a
00118$:
	lda	sp,31(sp)
ret
	.area _CODE
	.area _CABS
